ARM GAS  C:\Users\srvs\AppData\Local\Temp\ccqIIMtK.s 			page 1


   1              		.cpu cortex-m0
   2              		.fpu softvfp
   3              		.eabi_attribute 20, 1
   4              		.eabi_attribute 21, 1
   5              		.eabi_attribute 23, 3
   6              		.eabi_attribute 24, 1
   7              		.eabi_attribute 25, 1
   8              		.eabi_attribute 26, 1
   9              		.eabi_attribute 30, 6
  10              		.eabi_attribute 18, 4
  11              		.code	16
  12              		.file	"main.c"
  19 0000 84000000 		.text
  19      02004500 
  19      00000201 
  19      FB0E0D00 
  19      01010101 
  20              	.Ltext0:
  21              		.cfi_sections	.debug_frame
  22              		.comm	i,4,4
  23              		.comm	fnam,4,4
  24              		.comm	siz,4,4
  25              		.comm	no,1,1
  26              		.comm	fcnt,1,1
  27              		.comm	fre,1,1
  28              		.comm	j,1,1
  29              		.comm	bufnn,1,1
  30              		.section	.rodata
  31              		.align	2
  32              	.LC2:
  33 0000 66696C65 		.ascii	"file1.txt\000"
  33      312E7478 
  33      7400
  34 000a 0000     		.align	2
  35              	.LC4:
  36 000c 7700     		.ascii	"w\000"
  37 000e 0000     		.align	2
  38              	.LC6:
  39 0010 54686973 		.ascii	"This is my 1st file.\000"
  39      20697320 
  39      6D792031 
  39      73742066 
  39      696C652E 
  40 0025 000000   		.align	2
  41              	.LC8:
  42 0028 66696C65 		.ascii	"file_tmp.txt\000"
  42      5F746D70 
  42      2E747874 
  42      00
  43 0035 000000   		.align	2
  44              	.LC10:
ARM GAS  C:\Users\srvs\AppData\Local\Temp\ccqIIMtK.s 			page 2


  45 0038 54686973 		.ascii	"This is a temp file.\000"
  45      20697320 
  45      61207465 
  45      6D702066 
  45      696C652E 
  46 004d 000000   		.align	2
  47              	.LC12:
  48 0050 66696C65 		.ascii	"file2.txt\000"
  48      322E7478 
  48      7400
  49 005a 0000     		.align	2
  50              	.LC14:
  51 005c 54686973 		.ascii	"This is my 2nd file.\000"
  51      20697320 
  51      6D792032 
  51      6E642066 
  51      696C652E 
  52 0071 000000   		.align	2
  53              	.LC16:
  54 0074 6100     		.ascii	"a\000"
  55 0076 0000     		.align	2
  56              	.LC18:
  57 0078 49206170 		.ascii	"I appended this text.\000"
  57      70656E64 
  57      65642074 
  57      68697320 
  57      74657874 
  58 008e 0000     		.align	2
  59              	.LC20:
  60 0090 7200     		.ascii	"r\000"
  61 0092 0000     		.align	2
  62              	.LC23:
  63 0094 66696C65 		.ascii	"file_ren.txt\000"
  63      5F72656E 
  63      2E747874 
  63      00
  64 00a1 000000   		.align	2
  65              	.LC25:
  66 00a4 66696C65 		.ascii	"file_cpy.txt\000"
  66      5F637079 
  66      2E747874 
  66      00
  67 00b1 000000   		.section	.text.main,"ax",%progbits
  68              		.align	2
  69              		.global	main
  70              		.code	16
  71              		.thumb_func
  72              		.type	main, %function
  73              	main:
  74              	.LFB20:
  75              		.file 1 ".\\main.c"
   1:.\main.c      **** /* ========================================
   2:.\main.c      ****  *
   3:.\main.c      ****  * The following firmware was developed by Cypress Semiconductor
   4:.\main.c      ****  * This work is licensed under a Creative Commons Attribution 3.0 Unported License.
   5:.\main.c      ****  * 
   6:.\main.c      ****  * http://creativecommons.org/licenses/by/3.0/deed.en_US
ARM GAS  C:\Users\srvs\AppData\Local\Temp\ccqIIMtK.s 			page 3


   7:.\main.c      ****  * 
   8:.\main.c      ****  * You are free to:
   9:.\main.c      ****  * -To Share — to copy, distribute and transmit the work 
  10:.\main.c      ****  * -To Remix — to adapt the work 
  11:.\main.c      ****  * -To make commercial use of the work
  12:.\main.c      ****  *
  13:.\main.c      ****  * ========================================
  14:.\main.c      ****  */
  15:.\main.c      **** 
  16:.\main.c      **** #include <device.h>
  17:.\main.c      **** 
  18:.\main.c      **** uint32 i;
  19:.\main.c      **** char * fnam;
  20:.\main.c      **** uint32 siz;
  21:.\main.c      **** uint8 no,fcnt,fre,j,bufnn;
  22:.\main.c      **** 
  23:.\main.c      **** // The main
  24:.\main.c      **** void main()
  25:.\main.c      **** {
  76              		.loc 1 25 0
  77              		.cfi_startproc
  78 0000 80B5     		push	{r7, lr}
  79              	.LCFI0:
  80              		.cfi_def_cfa_offset 8
  81              		.cfi_offset 7, -8
  82              		.cfi_offset 14, -4
  83 0002 82B0     		sub	sp, sp, #8
  84              	.LCFI1:
  85              		.cfi_def_cfa_offset 16
  86 0004 00AF     		add	r7, sp, #0
  87              	.LCFI2:
  88              		.cfi_def_cfa_register 7
  26:.\main.c      ****     char   cardInfo;							// Card information  
  27:.\main.c      ****     char   fp;									// File Pointer  
  28:.\main.c      ****     uint8  cnt;									// Card inserted state variables  
  29:.\main.c      **** 	uint8  load = 2;							// Card initialization variable
  89              		.loc 1 29 0
  90 0006 BB1D     		add	r3, r7, #6
  91 0008 0222     		mov	r2, #2
  92 000a 1A70     		strb	r2, [r3]
  30:.\main.c      **** 	char   data_r;								// Data read from Card
  31:.\main.c      **** 	
  32:.\main.c      **** 	CyGlobalIntEnable;							// Enable all global interrupts
  93              		.loc 1 32 0
  94              	@ 32 ".\main.c" 1
  95 000c 62B6     		CPSIE   i
  96              	@ 0 "" 2
  97              		.code	16
  98              	.L5:
  33:.\main.c      **** 	
  34:.\main.c      **** 	// Setup and initialize the SD Card
  35:.\main.c      **** 	do
  36:.\main.c      **** 	{
  37:.\main.c      **** 		SDCard_Start();							// Initialize SPI Bus for communication
  99              		.loc 1 37 0
 100 000e FFF7FEFF 		bl	SDCard_Start
  38:.\main.c      **** 		SDCard_Select(SDCard_DISABLE); 			// Select card 
ARM GAS  C:\Users\srvs\AppData\Local\Temp\ccqIIMtK.s 			page 4


 101              		.loc 1 38 0
 102 0012 0020     		mov	r0, #0
 103 0014 FFF7FEFF 		bl	SDCard_Select
  39:.\main.c      **** 			
  40:.\main.c      **** 		cardInfo = 0;  
 104              		.loc 1 40 0
 105 0018 FB1C     		add	r3, r7, #3
 106 001a 0022     		mov	r2, #0
 107 001c 1A70     		strb	r2, [r3]
  41:.\main.c      **** 		cnt = 0;
 108              		.loc 1 41 0
 109 001e 7B1D     		add	r3, r7, #5
 110 0020 0022     		mov	r2, #0
 111 0022 1A70     		strb	r2, [r3]
  42:.\main.c      **** 	    while ( ! cardInfo )          			// Wait for card to communicate  
 112              		.loc 1 42 0
 113 0024 11E0     		b	.L2
 114              	.L4:
  43:.\main.c      **** 	    {  
  44:.\main.c      **** 		   cnt++;
 115              		.loc 1 44 0
 116 0026 7B1D     		add	r3, r7, #5
 117 0028 7A1D     		add	r2, r7, #5
 118 002a 1278     		ldrb	r2, [r2]
 119 002c 0132     		add	r2, r2, #1
 120 002e 1A70     		strb	r2, [r3]
  45:.\main.c      **** 		   if(cnt == 0xFF) {cnt = 0;}
 121              		.loc 1 45 0
 122 0030 7B1D     		add	r3, r7, #5
 123 0032 1B78     		ldrb	r3, [r3]
 124 0034 FF2B     		cmp	r3, #255
 125 0036 02D1     		bne	.L3
 126 0038 7B1D     		add	r3, r7, #5
 127 003a 0022     		mov	r2, #0
 128 003c 1A70     		strb	r2, [r3]
 129              	.L3:
  46:.\main.c      **** 	       cardInfo = SDCard_InitCard();
 130              		.loc 1 46 0
 131 003e FFF7FEFF 		bl	SDCard_InitCard
 132 0042 031C     		mov	r3, r0
 133 0044 1A1C     		mov	r2, r3
 134 0046 FB1C     		add	r3, r7, #3
 135 0048 1A70     		strb	r2, [r3]
 136              	.L2:
 137              		.loc 1 42 0
 138 004a FB1C     		add	r3, r7, #3
 139 004c 1B78     		ldrb	r3, [r3]
 140 004e 002B     		cmp	r3, #0
 141 0050 E9D0     		beq	.L4
  47:.\main.c      **** 	    }  
  48:.\main.c      **** 			
  49:.\main.c      **** 		load = load - 1;
 142              		.loc 1 49 0
 143 0052 BB1D     		add	r3, r7, #6
 144 0054 BA1D     		add	r2, r7, #6
 145 0056 1278     		ldrb	r2, [r2]
 146 0058 013A     		sub	r2, r2, #1
ARM GAS  C:\Users\srvs\AppData\Local\Temp\ccqIIMtK.s 			page 5


 147 005a 1A70     		strb	r2, [r3]
  50:.\main.c      **** 	}while(load > 0);							// Stay in the loop till the card is initialized.
 148              		.loc 1 50 0
 149 005c BB1D     		add	r3, r7, #6
 150 005e 1B78     		ldrb	r3, [r3]
 151 0060 002B     		cmp	r3, #0
 152 0062 D4D1     		bne	.L5
  51:.\main.c      **** 	
  52:.\main.c      **** 	fcnt = SDCard_GetFileCount();				// Get number of files on Card
 153              		.loc 1 52 0
 154 0064 FFF7FEFF 		bl	SDCard_GetFileCount
 155 0068 031C     		mov	r3, r0
 156 006a DAB2     		uxtb	r2, r3
 157 006c 5A4B     		ldr	r3, .L12
 158 006e 1A70     		strb	r2, [r3]
  53:.\main.c      **** 	
  54:.\main.c      **** 	// Loop through all the existing files
  55:.\main.c      **** 	// in the SD Card, one by one
  56:.\main.c      **** 	// or skip is count = 0
  57:.\main.c      **** 	for (cnt = 0; cnt < fcnt; cnt++)
 159              		.loc 1 57 0
 160 0070 7B1D     		add	r3, r7, #5
 161 0072 0022     		mov	r2, #0
 162 0074 1A70     		strb	r2, [r3]
 163 0076 0CE0     		b	.L6
 164              	.L7:
  58:.\main.c      **** 	{
  59:.\main.c      **** 		fnam = SDCard_GetFilename(cnt);			// Get the filename of the file with index value in "cnt"
 165              		.loc 1 59 0
 166 0078 7B1D     		add	r3, r7, #5
 167 007a 1B78     		ldrb	r3, [r3]
 168 007c 181C     		mov	r0, r3
 169 007e FFF7FEFF 		bl	SDCard_GetFilename
 170 0082 021C     		mov	r2, r0
 171 0084 554B     		ldr	r3, .L12+4
 172 0086 1A60     		str	r2, [r3]
 173              		.loc 1 57 0
 174 0088 7B1D     		add	r3, r7, #5
 175 008a 7A1D     		add	r2, r7, #5
 176 008c 1278     		ldrb	r2, [r2]
 177 008e 0132     		add	r2, r2, #1
 178 0090 1A70     		strb	r2, [r3]
 179              	.L6:
 180 0092 514B     		ldr	r3, .L12
 181 0094 1B78     		ldrb	r3, [r3]
 182 0096 7A1D     		add	r2, r7, #5
 183 0098 1278     		ldrb	r2, [r2]
 184 009a 9A42     		cmp	r2, r3
 185 009c ECD3     		bcc	.L7
  60:.\main.c      **** 	}
  61:.\main.c      **** 	
  62:.\main.c      **** 	// *****************************************
  63:.\main.c      **** 	// 1. Write File
  64:.\main.c      **** 	// *****************************************
  65:.\main.c      **** 	fp = SDCard_fopen("file1.txt", "w");		// Open a file with write mode access. If the file is not pr
 186              		.loc 1 65 0
 187 009e 504A     		ldr	r2, .L12+8
ARM GAS  C:\Users\srvs\AppData\Local\Temp\ccqIIMtK.s 			page 6


 188 00a0 504B     		ldr	r3, .L12+12
 189 00a2 101C     		mov	r0, r2
 190 00a4 191C     		mov	r1, r3
 191 00a6 FFF7FEFF 		bl	SDCard_fopen
 192 00aa 031C     		mov	r3, r0
 193 00ac 1A1C     		mov	r2, r3
 194 00ae 3B1D     		add	r3, r7, #4
 195 00b0 1A70     		strb	r2, [r3]
  66:.\main.c      **** 	SDCard_fputcs("This is my 1st file.", fp);	// Write a constant string into the file
 196              		.loc 1 66 0
 197 00b2 4D4A     		ldr	r2, .L12+16
 198 00b4 3B1D     		add	r3, r7, #4
 199 00b6 1B78     		ldrb	r3, [r3]
 200 00b8 101C     		mov	r0, r2
 201 00ba 191C     		mov	r1, r3
 202 00bc FFF7FEFF 		bl	SDCard_fputcs
  67:.\main.c      **** 	SDCard_fclose(fp);           				// Close file
 203              		.loc 1 67 0
 204 00c0 3B1D     		add	r3, r7, #4
 205 00c2 1B78     		ldrb	r3, [r3]
 206 00c4 181C     		mov	r0, r3
 207 00c6 FFF7FEFF 		bl	SDCard_fclose
  68:.\main.c      **** 	fp = SDCard_fopen("file_tmp.txt", "w");		// Open a file with write mode access. If the file is not
 208              		.loc 1 68 0
 209 00ca 484A     		ldr	r2, .L12+20
 210 00cc 454B     		ldr	r3, .L12+12
 211 00ce 101C     		mov	r0, r2
 212 00d0 191C     		mov	r1, r3
 213 00d2 FFF7FEFF 		bl	SDCard_fopen
 214 00d6 031C     		mov	r3, r0
 215 00d8 1A1C     		mov	r2, r3
 216 00da 3B1D     		add	r3, r7, #4
 217 00dc 1A70     		strb	r2, [r3]
  69:.\main.c      **** 	SDCard_fputcs("This is a temp file.", fp);	// Write a constant string into the file
 218              		.loc 1 69 0
 219 00de 444A     		ldr	r2, .L12+24
 220 00e0 3B1D     		add	r3, r7, #4
 221 00e2 1B78     		ldrb	r3, [r3]
 222 00e4 101C     		mov	r0, r2
 223 00e6 191C     		mov	r1, r3
 224 00e8 FFF7FEFF 		bl	SDCard_fputcs
  70:.\main.c      **** 	SDCard_fclose(fp);           				// Close file
 225              		.loc 1 70 0
 226 00ec 3B1D     		add	r3, r7, #4
 227 00ee 1B78     		ldrb	r3, [r3]
 228 00f0 181C     		mov	r0, r3
 229 00f2 FFF7FEFF 		bl	SDCard_fclose
  71:.\main.c      **** 	
  72:.\main.c      **** 	// *****************************************
  73:.\main.c      **** 	// 2. Append File
  74:.\main.c      **** 	// *****************************************
  75:.\main.c      **** 	fp = SDCard_fopen("file2.txt", "w");      	// Open a file with write mode access. If the file is n
 230              		.loc 1 75 0
 231 00f6 3F4A     		ldr	r2, .L12+28
 232 00f8 3A4B     		ldr	r3, .L12+12
 233 00fa 101C     		mov	r0, r2
 234 00fc 191C     		mov	r1, r3
ARM GAS  C:\Users\srvs\AppData\Local\Temp\ccqIIMtK.s 			page 7


 235 00fe FFF7FEFF 		bl	SDCard_fopen
 236 0102 031C     		mov	r3, r0
 237 0104 1A1C     		mov	r2, r3
 238 0106 3B1D     		add	r3, r7, #4
 239 0108 1A70     		strb	r2, [r3]
  76:.\main.c      **** 	SDCard_fputcs("This is my 2nd file.", fp);	// Write a constant string into the file
 240              		.loc 1 76 0
 241 010a 3B4A     		ldr	r2, .L12+32
 242 010c 3B1D     		add	r3, r7, #4
 243 010e 1B78     		ldrb	r3, [r3]
 244 0110 101C     		mov	r0, r2
 245 0112 191C     		mov	r1, r3
 246 0114 FFF7FEFF 		bl	SDCard_fputcs
  77:.\main.c      **** 	SDCard_fclose(fp);           				// Close file
 247              		.loc 1 77 0
 248 0118 3B1D     		add	r3, r7, #4
 249 011a 1B78     		ldrb	r3, [r3]
 250 011c 181C     		mov	r0, r3
 251 011e FFF7FEFF 		bl	SDCard_fclose
  78:.\main.c      **** 	fp = SDCard_fopen("file2.txt", "a");		// Open the file with append mode access.
 252              		.loc 1 78 0
 253 0122 344A     		ldr	r2, .L12+28
 254 0124 354B     		ldr	r3, .L12+36
 255 0126 101C     		mov	r0, r2
 256 0128 191C     		mov	r1, r3
 257 012a FFF7FEFF 		bl	SDCard_fopen
 258 012e 031C     		mov	r3, r0
 259 0130 1A1C     		mov	r2, r3
 260 0132 3B1D     		add	r3, r7, #4
 261 0134 1A70     		strb	r2, [r3]
  79:.\main.c      **** 	SDCard_fputcs("I appended this text.", fp);	// Write a constant string into the file
 262              		.loc 1 79 0
 263 0136 324A     		ldr	r2, .L12+40
 264 0138 3B1D     		add	r3, r7, #4
 265 013a 1B78     		ldrb	r3, [r3]
 266 013c 101C     		mov	r0, r2
 267 013e 191C     		mov	r1, r3
 268 0140 FFF7FEFF 		bl	SDCard_fputcs
  80:.\main.c      **** 	SDCard_fclose(fp);           				// Close file
 269              		.loc 1 80 0
 270 0144 3B1D     		add	r3, r7, #4
 271 0146 1B78     		ldrb	r3, [r3]
 272 0148 181C     		mov	r0, r3
 273 014a FFF7FEFF 		bl	SDCard_fclose
  81:.\main.c      **** 	
  82:.\main.c      **** 	// *****************************************
  83:.\main.c      **** 	// 3. Read Read
  84:.\main.c      **** 	// *****************************************
  85:.\main.c      **** 	fp = SDCard_fopen("file2.txt", "r");		// Open a file with readonly access.
 274              		.loc 1 85 0
 275 014e 294A     		ldr	r2, .L12+28
 276 0150 2C4B     		ldr	r3, .L12+44
 277 0152 101C     		mov	r0, r2
 278 0154 191C     		mov	r1, r3
 279 0156 FFF7FEFF 		bl	SDCard_fopen
 280 015a 031C     		mov	r3, r0
 281 015c 1A1C     		mov	r2, r3
ARM GAS  C:\Users\srvs\AppData\Local\Temp\ccqIIMtK.s 			page 8


 282 015e 3B1D     		add	r3, r7, #4
 283 0160 1A70     		strb	r2, [r3]
  86:.\main.c      **** 	siz  = SDCard_GetFileSize(fp);				// Get the file size.
 284              		.loc 1 86 0
 285 0162 3B1D     		add	r3, r7, #4
 286 0164 1B78     		ldrb	r3, [r3]
 287 0166 181C     		mov	r0, r3
 288 0168 FFF7FEFF 		bl	SDCard_GetFileSize
 289 016c 021C     		mov	r2, r0
 290 016e 264B     		ldr	r3, .L12+48
 291 0170 1A60     		str	r2, [r3]
  87:.\main.c      **** 	SDCard_fseek(fp, 0);						// Move to the offset-0, which is the beginning of file
 292              		.loc 1 87 0
 293 0172 3B1D     		add	r3, r7, #4
 294 0174 1B78     		ldrb	r3, [r3]
 295 0176 181C     		mov	r0, r3
 296 0178 0021     		mov	r1, #0
 297 017a FFF7FEFF 		bl	SDCard_fseek
  88:.\main.c      **** 	while(!SDCard_feof(fp))						// Loop till end of file
 298              		.loc 1 88 0
 299 017e 08E0     		b	.L8
 300              	.L9:
  89:.\main.c      **** 	{
  90:.\main.c      **** 		data_r = SDCard_fgetc(fp);				// Read the character pointed by fp
 301              		.loc 1 90 0
 302 0180 3B1D     		add	r3, r7, #4
 303 0182 1B78     		ldrb	r3, [r3]
 304 0184 181C     		mov	r0, r3
 305 0186 FFF7FEFF 		bl	SDCard_fgetc
 306 018a 031C     		mov	r3, r0
 307 018c 1A1C     		mov	r2, r3
 308 018e FB1D     		add	r3, r7, #7
 309 0190 1A70     		strb	r2, [r3]
 310              	.L8:
 311              		.loc 1 88 0
 312 0192 3B1D     		add	r3, r7, #4
 313 0194 1B78     		ldrb	r3, [r3]
 314 0196 181C     		mov	r0, r3
 315 0198 FFF7FEFF 		bl	SDCard_feof
 316 019c 031C     		mov	r3, r0
 317 019e 002B     		cmp	r3, #0
 318 01a0 EED0     		beq	.L9
  91:.\main.c      **** 	}
  92:.\main.c      **** 	SDCard_fclose(fp);           				// Close file
 319              		.loc 1 92 0
 320 01a2 3B1D     		add	r3, r7, #4
 321 01a4 1B78     		ldrb	r3, [r3]
 322 01a6 181C     		mov	r0, r3
 323 01a8 FFF7FEFF 		bl	SDCard_fclose
  93:.\main.c      **** 	
  94:.\main.c      **** 	// *****************************************
  95:.\main.c      **** 	// 4. Rename File
  96:.\main.c      **** 	// *****************************************
  97:.\main.c      **** 	SDCard_Rename("file1.txt", "file_ren.txt");	// Rename file1.txt to file_ren.txt
 324              		.loc 1 97 0
 325 01ac 0C4A     		ldr	r2, .L12+8
 326 01ae 174B     		ldr	r3, .L12+52
ARM GAS  C:\Users\srvs\AppData\Local\Temp\ccqIIMtK.s 			page 9


 327 01b0 101C     		mov	r0, r2
 328 01b2 191C     		mov	r1, r3
 329 01b4 FFF7FEFF 		bl	SDCard_Rename
  98:.\main.c      **** 	
  99:.\main.c      **** 	// *****************************************
 100:.\main.c      **** 	// 5. Copy File
 101:.\main.c      **** 	// *****************************************
 102:.\main.c      **** 	SDCard_Copy("file_tmp.txt", "file_cpy.txt");// Copy the contents of file_tmp.txt to file_cpy.txt
 330              		.loc 1 102 0
 331 01b8 0C4A     		ldr	r2, .L12+20
 332 01ba 154B     		ldr	r3, .L12+56
 333 01bc 101C     		mov	r0, r2
 334 01be 191C     		mov	r1, r3
 335 01c0 FFF7FEFF 		bl	SDCard_Copy
 103:.\main.c      **** 	
 104:.\main.c      **** 	// *****************************************
 105:.\main.c      **** 	// 6. Delete File
 106:.\main.c      **** 	// *****************************************
 107:.\main.c      **** 	SDCard_Remove("file_tmp.txt");				// Delete file_tmp.txt
 336              		.loc 1 107 0
 337 01c4 094B     		ldr	r3, .L12+20
 338 01c6 181C     		mov	r0, r3
 339 01c8 FFF7FEFF 		bl	SDCard_Remove
 108:.\main.c      **** 
 109:.\main.c      **** 	SDCard_Select(SDCard_DISABLE);         		// Deselect card  
 340              		.loc 1 109 0
 341 01cc 0020     		mov	r0, #0
 342 01ce FFF7FEFF 		bl	SDCard_Select
 110:.\main.c      **** 	SDCard_Stop();								// Stop the communication interface
 343              		.loc 1 110 0
 344 01d2 FFF7FEFF 		bl	SDCard_Stop
 345              	.L10:
 111:.\main.c      **** 	
 112:.\main.c      **** 	while(1);									// The End
 346              		.loc 1 112 0
 347 01d6 FEE7     		b	.L10
 348              	.L13:
 349              		.align	2
 350              	.L12:
 351 01d8 00000000 		.word	fcnt
 352 01dc 00000000 		.word	fnam
 353 01e0 00000000 		.word	.LC2
 354 01e4 0C000000 		.word	.LC4
 355 01e8 10000000 		.word	.LC6
 356 01ec 28000000 		.word	.LC8
 357 01f0 38000000 		.word	.LC10
 358 01f4 50000000 		.word	.LC12
 359 01f8 5C000000 		.word	.LC14
 360 01fc 74000000 		.word	.LC16
 361 0200 78000000 		.word	.LC18
 362 0204 90000000 		.word	.LC20
 363 0208 00000000 		.word	siz
 364 020c 94000000 		.word	.LC23
 365 0210 A4000000 		.word	.LC25
 366              		.cfi_endproc
 367              	.LFE20:
 368              		.size	main, .-main
ARM GAS  C:\Users\srvs\AppData\Local\Temp\ccqIIMtK.s 			page 10


 369              		.text
 370              	.Letext0: