ARM GAS  C:\Users\srvs\AppData\Local\Temp\cct5qM3z.s 			page 1


   1              		.cpu cortex-m0
   2              		.fpu softvfp
   3              		.eabi_attribute 20, 1
   4              		.eabi_attribute 21, 1
   5              		.eabi_attribute 23, 3
   6              		.eabi_attribute 24, 1
   7              		.eabi_attribute 25, 1
   8              		.eabi_attribute 26, 1
   9              		.eabi_attribute 30, 6
  10              		.eabi_attribute 18, 4
  11              		.code	16
  12              		.file	"SDCard_SPI.c"
  19 0000 37010000 		.text
  19      02006200 
  19      00000201 
  19      FB0E0D00 
  19      01010101 
  20              	.Ltext0:
  21              		.cfi_sections	.debug_frame
  22              		.section	.text.SDCard_InitHdwr,"ax",%progbits
  23              		.align	2
  24              		.global	SDCard_InitHdwr
  25              		.code	16
  26              		.thumb_func
  27              		.type	SDCard_InitHdwr, %function
  28              	SDCard_InitHdwr:
  29              	.LFB20:
  30              		.file 1 ".\\Generated_Source\\PSoC4\\SDCard_SPI.c"
   1:.\Generated_Source\PSoC4/SDCard_SPI.c **** /****************************************************************************
   2:.\Generated_Source\PSoC4/SDCard_SPI.c **** *****************************************************************************
   3:.\Generated_Source\PSoC4/SDCard_SPI.c ****   FILENAME: SDCard_SPI.c
   4:.\Generated_Source\PSoC4/SDCard_SPI.c ****   Version 0.0
   5:.\Generated_Source\PSoC4/SDCard_SPI.c ****   
   6:.\Generated_Source\PSoC4/SDCard_SPI.c **** 
   7:.\Generated_Source\PSoC4/SDCard_SPI.c ****   DESCRIPTION: SDCard User Module software implementation file
   8:.\Generated_Source\PSoC4/SDCard_SPI.c ****                for the low level SPI hardware.
   9:.\Generated_Source\PSoC4/SDCard_SPI.c **** 
  10:.\Generated_Source\PSoC4/SDCard_SPI.c ****   NOTE: User Module APIs conform to the fastcall16 convention for marshalling
  11:.\Generated_Source\PSoC4/SDCard_SPI.c ****         arguments and observe the associated "Registers are volatile" policy.
  12:.\Generated_Source\PSoC4/SDCard_SPI.c ****         This means it is the caller's responsibility to preserve any values
  13:.\Generated_Source\PSoC4/SDCard_SPI.c ****         in the X and A registers that are still needed after the API functions
  14:.\Generated_Source\PSoC4/SDCard_SPI.c ****         returns. For Large Memory Model devices it is also the caller's 
  15:.\Generated_Source\PSoC4/SDCard_SPI.c ****         responsibility to perserve any value in the CUR_PP, IDX_PP, MVR_PP and 
  16:.\Generated_Source\PSoC4/SDCard_SPI.c ****         MVW_PP registers. Even though some of these registers may not be modified
  17:.\Generated_Source\PSoC4/SDCard_SPI.c ****         now, there is no guarantee that will remain the case in future releases.
  18:.\Generated_Source\PSoC4/SDCard_SPI.c **** -----------------------------------------------------------------------------
  19:.\Generated_Source\PSoC4/SDCard_SPI.c ****   Copyright (c) Cypress Semiconductor 2013-14. All Rights Reserved.
  20:.\Generated_Source\PSoC4/SDCard_SPI.c **** *****************************************************************************
  21:.\Generated_Source\PSoC4/SDCard_SPI.c **** *****************************************************************************
  22:.\Generated_Source\PSoC4/SDCard_SPI.c **** */
  23:.\Generated_Source\PSoC4/SDCard_SPI.c **** 
ARM GAS  C:\Users\srvs\AppData\Local\Temp\cct5qM3z.s 			page 2


  24:.\Generated_Source\PSoC4/SDCard_SPI.c **** #include "device.h"
  25:.\Generated_Source\PSoC4/SDCard_SPI.c **** #include "SDCard_SPI.h"
  26:.\Generated_Source\PSoC4/SDCard_SPI.c **** 
  27:.\Generated_Source\PSoC4/SDCard_SPI.c **** /*
  28:.\Generated_Source\PSoC4/SDCard_SPI.c **** ;-----------------------------------------------------------------------------
  29:.\Generated_Source\PSoC4/SDCard_SPI.c **** ;  FUNCTION NAME: SDCard_InitHdwr
  30:.\Generated_Source\PSoC4/SDCard_SPI.c **** ;
  31:.\Generated_Source\PSoC4/SDCard_SPI.c **** ;  DESCRIPTION:
  32:.\Generated_Source\PSoC4/SDCard_SPI.c **** ;     Sets the start bit, SPI mode, and LSB/MSB first configuration of the SPIM
  33:.\Generated_Source\PSoC4/SDCard_SPI.c **** ;     user module.
  34:.\Generated_Source\PSoC4/SDCard_SPI.c **** ;
  35:.\Generated_Source\PSoC4/SDCard_SPI.c **** ;     Transmission will begin transmitting when a byte is written into the TX buffer
  36:.\Generated_Source\PSoC4/SDCard_SPI.c **** ;     using the SDCard_SendTxData function.
  37:.\Generated_Source\PSoC4/SDCard_SPI.c **** ;
  38:.\Generated_Source\PSoC4/SDCard_SPI.c **** ;-----------------------------------------------------------------------------
  39:.\Generated_Source\PSoC4/SDCard_SPI.c **** ;
  40:.\Generated_Source\PSoC4/SDCard_SPI.c **** ;  ARGUMENTS:
  41:.\Generated_Source\PSoC4/SDCard_SPI.c **** ;     uint8 bConfiguration - Consists of SPI Mode and LSB/MSB first bit.
  42:.\Generated_Source\PSoC4/SDCard_SPI.c **** ;           Use defined masks - masks can be OR'd together.
  43:.\Generated_Source\PSoC4/SDCard_SPI.c **** ;     PASSED in Accumulator.
  44:.\Generated_Source\PSoC4/SDCard_SPI.c **** ;
  45:.\Generated_Source\PSoC4/SDCard_SPI.c **** ;  RETURNS:  none
  46:.\Generated_Source\PSoC4/SDCard_SPI.c **** ;
  47:.\Generated_Source\PSoC4/SDCard_SPI.c **** ;  SIDE EFFECTS: 
  48:.\Generated_Source\PSoC4/SDCard_SPI.c **** ;    The A and X registers may be modified by this or future implementations
  49:.\Generated_Source\PSoC4/SDCard_SPI.c **** ;    of this function.  The same is true for all RAM page pointer registers in
  50:.\Generated_Source\PSoC4/SDCard_SPI.c **** ;    the Large Memory Model.  When necessary, it is the calling function's
  51:.\Generated_Source\PSoC4/SDCard_SPI.c **** ;    responsibility to perserve their values across calls to fastcall16 
  52:.\Generated_Source\PSoC4/SDCard_SPI.c **** ;    functions.
  53:.\Generated_Source\PSoC4/SDCard_SPI.c **** ;
  54:.\Generated_Source\PSoC4/SDCard_SPI.c **** ;  THEORY of OPERATION or PROCEDURE:
  55:.\Generated_Source\PSoC4/SDCard_SPI.c **** ;     1) Set all Slave Select outputs high
  56:.\Generated_Source\PSoC4/SDCard_SPI.c **** ;     2) Set the specified SPI configuration bits in the Control register.
  57:.\Generated_Source\PSoC4/SDCard_SPI.c **** ;
  58:.\Generated_Source\PSoC4/SDCard_SPI.c **** */
  59:.\Generated_Source\PSoC4/SDCard_SPI.c **** void  SDCard_InitHdwr(uint8 bConfiguration)
  60:.\Generated_Source\PSoC4/SDCard_SPI.c **** {
  31              		.loc 1 60 0
  32              		.cfi_startproc
  33 0000 80B5     		push	{r7, lr}
  34              	.LCFI0:
  35              		.cfi_def_cfa_offset 8
  36              		.cfi_offset 7, -8
  37              		.cfi_offset 14, -4
  38 0002 82B0     		sub	sp, sp, #8
  39              	.LCFI1:
  40              		.cfi_def_cfa_offset 16
  41 0004 00AF     		add	r7, sp, #0
  42              	.LCFI2:
  43              		.cfi_def_cfa_register 7
  44 0006 021C     		mov	r2, r0
  45 0008 FB1D     		add	r3, r7, #7
  46 000a 1A70     		strb	r2, [r3]
  61:.\Generated_Source\PSoC4/SDCard_SPI.c **** 	SDCard_SD_CS_Write(0);
  47              		.loc 1 61 0
  48 000c 0020     		mov	r0, #0
  49 000e FFF7FEFF 		bl	SDCard_SD_CS_Write
ARM GAS  C:\Users\srvs\AppData\Local\Temp\cct5qM3z.s 			page 3


  62:.\Generated_Source\PSoC4/SDCard_SPI.c **** 	SDCard_SD_Clock_SetDividerRegister(0, 1);
  50              		.loc 1 62 0
  51 0012 0020     		mov	r0, #0
  52 0014 0021     		mov	r1, #0
  53 0016 FFF7FEFF 		bl	SDCard_SD_Clock_SetFractionalDividerRegister
  63:.\Generated_Source\PSoC4/SDCard_SPI.c **** 	SDCard_SPIM_Start();
  54              		.loc 1 63 0
  55 001a FFF7FEFF 		bl	SDCard_SPIM_Start
  64:.\Generated_Source\PSoC4/SDCard_SPI.c **** 	SDCard_SPIM_SpiUartClearTxBuffer();
  56              		.loc 1 64 0
  57 001e FFF7FEFF 		bl	SDCard_SPIM_SpiUartClearTxBuffer
  65:.\Generated_Source\PSoC4/SDCard_SPI.c **** 	SDCard_SPIM_SpiUartClearRxBuffer();
  58              		.loc 1 65 0
  59 0022 FFF7FEFF 		bl	SDCard_SPIM_SpiUartClearRxBuffer
  66:.\Generated_Source\PSoC4/SDCard_SPI.c **** }
  60              		.loc 1 66 0
  61 0026 BD46     		mov	sp, r7
  62 0028 02B0     		add	sp, sp, #8
  63              		@ sp needed for prologue
  64 002a 80BD     		pop	{r7, pc}
  65              		.cfi_endproc
  66              	.LFE20:
  67              		.size	SDCard_InitHdwr, .-SDCard_InitHdwr
  68              		.section	.text.SDCard_UnInitHdwr,"ax",%progbits
  69              		.align	2
  70              		.global	SDCard_UnInitHdwr
  71              		.code	16
  72              		.thumb_func
  73              		.type	SDCard_UnInitHdwr, %function
  74              	SDCard_UnInitHdwr:
  75              	.LFB21:
  67:.\Generated_Source\PSoC4/SDCard_SPI.c **** 
  68:.\Generated_Source\PSoC4/SDCard_SPI.c **** /*
  69:.\Generated_Source\PSoC4/SDCard_SPI.c **** ;-----------------------------------------------------------------------------
  70:.\Generated_Source\PSoC4/SDCard_SPI.c **** ;  FUNCTION NAME: SDCard_Stop
  71:.\Generated_Source\PSoC4/SDCard_SPI.c **** ;
  72:.\Generated_Source\PSoC4/SDCard_SPI.c **** ;  DESCRIPTION:
  73:.\Generated_Source\PSoC4/SDCard_SPI.c **** ;     Disables SPIM operation.
  74:.\Generated_Source\PSoC4/SDCard_SPI.c **** ;
  75:.\Generated_Source\PSoC4/SDCard_SPI.c **** ;-----------------------------------------------------------------------------
  76:.\Generated_Source\PSoC4/SDCard_SPI.c **** ;
  77:.\Generated_Source\PSoC4/SDCard_SPI.c **** ;  ARGUMENTS:  none
  78:.\Generated_Source\PSoC4/SDCard_SPI.c **** ;
  79:.\Generated_Source\PSoC4/SDCard_SPI.c **** ;  RETURNS:  none
  80:.\Generated_Source\PSoC4/SDCard_SPI.c **** ;
  81:.\Generated_Source\PSoC4/SDCard_SPI.c **** ;  SIDE EFFECTS: 
  82:.\Generated_Source\PSoC4/SDCard_SPI.c **** ;    The A and X registers may be modified by this or future implementations
  83:.\Generated_Source\PSoC4/SDCard_SPI.c **** ;    of this function.  The same is true for all RAM page pointer registers in
  84:.\Generated_Source\PSoC4/SDCard_SPI.c **** ;    the Large Memory Model.  When necessary, it is the calling function's
  85:.\Generated_Source\PSoC4/SDCard_SPI.c **** ;    responsibility to perserve their values across calls to fastcall16 
  86:.\Generated_Source\PSoC4/SDCard_SPI.c **** ;    functions.
  87:.\Generated_Source\PSoC4/SDCard_SPI.c **** ;
  88:.\Generated_Source\PSoC4/SDCard_SPI.c **** ;  THEORY of OPERATION or PROCEDURE:
  89:.\Generated_Source\PSoC4/SDCard_SPI.c **** ;     Clear the start bit in the Control register.
  90:.\Generated_Source\PSoC4/SDCard_SPI.c **** ;
  91:.\Generated_Source\PSoC4/SDCard_SPI.c **** */
  92:.\Generated_Source\PSoC4/SDCard_SPI.c **** void  SDCard_UnInitHdwr(void)
ARM GAS  C:\Users\srvs\AppData\Local\Temp\cct5qM3z.s 			page 4


  93:.\Generated_Source\PSoC4/SDCard_SPI.c **** {
  76              		.loc 1 93 0
  77              		.cfi_startproc
  78 0000 80B5     		push	{r7, lr}
  79              	.LCFI3:
  80              		.cfi_def_cfa_offset 8
  81              		.cfi_offset 7, -8
  82              		.cfi_offset 14, -4
  83 0002 00AF     		add	r7, sp, #0
  84              	.LCFI4:
  85              		.cfi_def_cfa_register 7
  94:.\Generated_Source\PSoC4/SDCard_SPI.c **** 	SDCard_SD_CS_Write(1);
  86              		.loc 1 94 0
  87 0004 0120     		mov	r0, #1
  88 0006 FFF7FEFF 		bl	SDCard_SD_CS_Write
  95:.\Generated_Source\PSoC4/SDCard_SPI.c **** 	SDCard_Select(0);
  89              		.loc 1 95 0
  90 000a 0020     		mov	r0, #0
  91 000c FFF7FEFF 		bl	SDCard_Select
  96:.\Generated_Source\PSoC4/SDCard_SPI.c **** 	SDCard_SPIM_Stop();
  92              		.loc 1 96 0
  93 0010 FFF7FEFF 		bl	SDCard_SPIM_Stop
  97:.\Generated_Source\PSoC4/SDCard_SPI.c **** }
  94              		.loc 1 97 0
  95 0014 BD46     		mov	sp, r7
  96              		@ sp needed for prologue
  97 0016 80BD     		pop	{r7, pc}
  98              		.cfi_endproc
  99              	.LFE21:
 100              		.size	SDCard_UnInitHdwr, .-SDCard_UnInitHdwr
 101              		.section	.text.SDCard_Select,"ax",%progbits
 102              		.align	2
 103              		.global	SDCard_Select
 104              		.code	16
 105              		.thumb_func
 106              		.type	SDCard_Select, %function
 107              	SDCard_Select:
 108              	.LFB22:
  98:.\Generated_Source\PSoC4/SDCard_SPI.c **** 
  99:.\Generated_Source\PSoC4/SDCard_SPI.c **** /*
 100:.\Generated_Source\PSoC4/SDCard_SPI.c **** ;-----------------------------------------------------------------------------
 101:.\Generated_Source\PSoC4/SDCard_SPI.c **** ;  FUNCTION NAME: void SDCard_Select(uint8 bEnable)
 102:.\Generated_Source\PSoC4/SDCard_SPI.c **** ;
 103:.\Generated_Source\PSoC4/SDCard_SPI.c **** ;  DESCRIPTION:
 104:.\Generated_Source\PSoC4/SDCard_SPI.c **** ;     Enable or disable card select signal.
 105:.\Generated_Source\PSoC4/SDCard_SPI.c **** ;
 106:.\Generated_Source\PSoC4/SDCard_SPI.c **** ;-----------------------------------------------------------------------------
 107:.\Generated_Source\PSoC4/SDCard_SPI.c **** ;
 108:.\Generated_Source\PSoC4/SDCard_SPI.c **** ;  ARGUMENTS:
 109:.\Generated_Source\PSoC4/SDCard_SPI.c **** ;     uint8 bEnable => 0 Disable Card
 110:.\Generated_Source\PSoC4/SDCard_SPI.c **** ;                  => 1 Enable Card
 111:.\Generated_Source\PSoC4/SDCard_SPI.c **** ;     PASSED in Accumulator.
 112:.\Generated_Source\PSoC4/SDCard_SPI.c **** ;
 113:.\Generated_Source\PSoC4/SDCard_SPI.c **** ;  RETURNS:  none
 114:.\Generated_Source\PSoC4/SDCard_SPI.c **** ;
 115:.\Generated_Source\PSoC4/SDCard_SPI.c **** ;  SIDE EFFECTS: 
 116:.\Generated_Source\PSoC4/SDCard_SPI.c **** ;    The A and X registers may be modified by this or future implementations
ARM GAS  C:\Users\srvs\AppData\Local\Temp\cct5qM3z.s 			page 5


 117:.\Generated_Source\PSoC4/SDCard_SPI.c **** ;    of this function.  The same is true for all RAM page pointer registers in
 118:.\Generated_Source\PSoC4/SDCard_SPI.c **** ;    the Large Memory Model.  When necessary, it is the calling function's
 119:.\Generated_Source\PSoC4/SDCard_SPI.c **** ;    responsibility to perserve their values across calls to fastcall16 
 120:.\Generated_Source\PSoC4/SDCard_SPI.c **** ;    functions.
 121:.\Generated_Source\PSoC4/SDCard_SPI.c **** ;
 122:.\Generated_Source\PSoC4/SDCard_SPI.c **** ;  THEORY of OPERATION or PROCEDURE:
 123:.\Generated_Source\PSoC4/SDCard_SPI.c **** ;
 124:.\Generated_Source\PSoC4/SDCard_SPI.c **** ;-----------------------------------------------------------------------------
 125:.\Generated_Source\PSoC4/SDCard_SPI.c **** */
 126:.\Generated_Source\PSoC4/SDCard_SPI.c **** 
 127:.\Generated_Source\PSoC4/SDCard_SPI.c **** void  SDCard_Select(uint8 bEnable)
 128:.\Generated_Source\PSoC4/SDCard_SPI.c **** {
 109              		.loc 1 128 0
 110              		.cfi_startproc
 111 0000 80B5     		push	{r7, lr}
 112              	.LCFI5:
 113              		.cfi_def_cfa_offset 8
 114              		.cfi_offset 7, -8
 115              		.cfi_offset 14, -4
 116 0002 82B0     		sub	sp, sp, #8
 117              	.LCFI6:
 118              		.cfi_def_cfa_offset 16
 119 0004 00AF     		add	r7, sp, #0
 120              	.LCFI7:
 121              		.cfi_def_cfa_register 7
 122 0006 021C     		mov	r2, r0
 123 0008 FB1D     		add	r3, r7, #7
 124 000a 1A70     		strb	r2, [r3]
 129:.\Generated_Source\PSoC4/SDCard_SPI.c **** 	if(bEnable)
 125              		.loc 1 129 0
 126 000c FB1D     		add	r3, r7, #7
 127 000e 1B78     		ldrb	r3, [r3]
 128 0010 002B     		cmp	r3, #0
 129 0012 06D0     		beq	.L6
 130:.\Generated_Source\PSoC4/SDCard_SPI.c **** 		{
 131:.\Generated_Source\PSoC4/SDCard_SPI.c **** 		SDCard_SD_CS_Write(0);
 130              		.loc 1 131 0
 131 0014 0020     		mov	r0, #0
 132 0016 FFF7FEFF 		bl	SDCard_SD_CS_Write
 132:.\Generated_Source\PSoC4/SDCard_SPI.c **** 		SDCard_SD_PWR_Write(1);
 133              		.loc 1 132 0
 134 001a 0120     		mov	r0, #1
 135 001c FFF7FEFF 		bl	SDCard_SD_PWR_Write
 136 0020 05E0     		b	.L8
 137              	.L6:
 133:.\Generated_Source\PSoC4/SDCard_SPI.c **** 		}
 134:.\Generated_Source\PSoC4/SDCard_SPI.c **** 	else
 135:.\Generated_Source\PSoC4/SDCard_SPI.c **** 		{
 136:.\Generated_Source\PSoC4/SDCard_SPI.c **** 		SDCard_SD_CS_Write(1);
 138              		.loc 1 136 0
 139 0022 0120     		mov	r0, #1
 140 0024 FFF7FEFF 		bl	SDCard_SD_CS_Write
 137:.\Generated_Source\PSoC4/SDCard_SPI.c **** 		SDCard_SD_PWR_Write(0);
 141              		.loc 1 137 0
 142 0028 0020     		mov	r0, #0
 143 002a FFF7FEFF 		bl	SDCard_SD_PWR_Write
 144              	.L8:
ARM GAS  C:\Users\srvs\AppData\Local\Temp\cct5qM3z.s 			page 6


 138:.\Generated_Source\PSoC4/SDCard_SPI.c **** 		}
 139:.\Generated_Source\PSoC4/SDCard_SPI.c **** }
 145              		.loc 1 139 0
 146 002e BD46     		mov	sp, r7
 147 0030 02B0     		add	sp, sp, #8
 148              		@ sp needed for prologue
 149 0032 80BD     		pop	{r7, pc}
 150              		.cfi_endproc
 151              	.LFE22:
 152              		.size	SDCard_Select, .-SDCard_Select
 153              		.section	.text.SDCard_SendTxData,"ax",%progbits
 154              		.align	2
 155              		.global	SDCard_SendTxData
 156              		.code	16
 157              		.thumb_func
 158              		.type	SDCard_SendTxData, %function
 159              	SDCard_SendTxData:
 160              	.LFB23:
 140:.\Generated_Source\PSoC4/SDCard_SPI.c **** 
 141:.\Generated_Source\PSoC4/SDCard_SPI.c **** /*
 142:.\Generated_Source\PSoC4/SDCard_SPI.c **** ;-----------------------------------------------------------------------------
 143:.\Generated_Source\PSoC4/SDCard_SPI.c **** ;  FUNCTION NAME: SDCard_SendTxData
 144:.\Generated_Source\PSoC4/SDCard_SPI.c **** ;
 145:.\Generated_Source\PSoC4/SDCard_SPI.c **** ;  DESCRIPTION:
 146:.\Generated_Source\PSoC4/SDCard_SPI.c **** ;     Initiates an SPI data transfer.
 147:.\Generated_Source\PSoC4/SDCard_SPI.c **** ;
 148:.\Generated_Source\PSoC4/SDCard_SPI.c **** ;-----------------------------------------------------------------------------
 149:.\Generated_Source\PSoC4/SDCard_SPI.c **** ;
 150:.\Generated_Source\PSoC4/SDCard_SPI.c **** ;  ARGUMENTS:
 151:.\Generated_Source\PSoC4/SDCard_SPI.c **** ;     uint8  bTxData - data to transmit.
 152:.\Generated_Source\PSoC4/SDCard_SPI.c **** ;        Passed in Accumulator.
 153:.\Generated_Source\PSoC4/SDCard_SPI.c **** ;
 154:.\Generated_Source\PSoC4/SDCard_SPI.c **** ;  RETURNS:  none
 155:.\Generated_Source\PSoC4/SDCard_SPI.c **** ;
 156:.\Generated_Source\PSoC4/SDCard_SPI.c **** ;  SIDE EFFECTS: 
 157:.\Generated_Source\PSoC4/SDCard_SPI.c **** ;    The A and X registers may be modified by this or future implementations
 158:.\Generated_Source\PSoC4/SDCard_SPI.c **** ;    of this function.  The same is true for all RAM page pointer registers in
 159:.\Generated_Source\PSoC4/SDCard_SPI.c **** ;    the Large Memory Model.  When necessary, it is the calling function's
 160:.\Generated_Source\PSoC4/SDCard_SPI.c **** ;    responsibility to perserve their values across calls to fastcall16 
 161:.\Generated_Source\PSoC4/SDCard_SPI.c **** ;    functions.
 162:.\Generated_Source\PSoC4/SDCard_SPI.c **** ;
 163:.\Generated_Source\PSoC4/SDCard_SPI.c **** ;  THEORY of OPERATION or PROCEDURE:
 164:.\Generated_Source\PSoC4/SDCard_SPI.c **** ;     Writes data to the TX buffer register.
 165:.\Generated_Source\PSoC4/SDCard_SPI.c **** ;
 166:.\Generated_Source\PSoC4/SDCard_SPI.c **** */
 167:.\Generated_Source\PSoC4/SDCard_SPI.c **** void  SDCard_SendTxData(uint8 bTxData)
 168:.\Generated_Source\PSoC4/SDCard_SPI.c **** {
 161              		.loc 1 168 0
 162              		.cfi_startproc
 163 0000 80B5     		push	{r7, lr}
 164              	.LCFI8:
 165              		.cfi_def_cfa_offset 8
 166              		.cfi_offset 7, -8
 167              		.cfi_offset 14, -4
 168 0002 82B0     		sub	sp, sp, #8
 169              	.LCFI9:
 170              		.cfi_def_cfa_offset 16
ARM GAS  C:\Users\srvs\AppData\Local\Temp\cct5qM3z.s 			page 7


 171 0004 00AF     		add	r7, sp, #0
 172              	.LCFI10:
 173              		.cfi_def_cfa_register 7
 174 0006 021C     		mov	r2, r0
 175 0008 FB1D     		add	r3, r7, #7
 176 000a 1A70     		strb	r2, [r3]
 169:.\Generated_Source\PSoC4/SDCard_SPI.c **** 	SDCard_SPIM_SpiUartWriteTxData((uint32) bTxData);
 177              		.loc 1 169 0
 178 000c FB1D     		add	r3, r7, #7
 179 000e 1B78     		ldrb	r3, [r3]
 180 0010 181C     		mov	r0, r3
 181 0012 FFF7FEFF 		bl	SDCard_SPIM_SpiUartWriteTxData
 170:.\Generated_Source\PSoC4/SDCard_SPI.c **** }
 182              		.loc 1 170 0
 183 0016 BD46     		mov	sp, r7
 184 0018 02B0     		add	sp, sp, #8
 185              		@ sp needed for prologue
 186 001a 80BD     		pop	{r7, pc}
 187              		.cfi_endproc
 188              	.LFE23:
 189              		.size	SDCard_SendTxData, .-SDCard_SendTxData
 190              		.section	.text.SDCard_WriteBuff256,"ax",%progbits
 191              		.align	2
 192              		.global	SDCard_WriteBuff256
 193              		.code	16
 194              		.thumb_func
 195              		.type	SDCard_WriteBuff256, %function
 196              	SDCard_WriteBuff256:
 197              	.LFB24:
 171:.\Generated_Source\PSoC4/SDCard_SPI.c **** 
 172:.\Generated_Source\PSoC4/SDCard_SPI.c **** /*
 173:.\Generated_Source\PSoC4/SDCard_SPI.c **** ;-----------------------------------------------------------------------------
 174:.\Generated_Source\PSoC4/SDCard_SPI.c **** ;  FUNCTION NAME: SDCard_WriteBuff256(char * sRamBuff)
 175:.\Generated_Source\PSoC4/SDCard_SPI.c **** ;
 176:.\Generated_Source\PSoC4/SDCard_SPI.c **** ;  DESCRIPTION:
 177:.\Generated_Source\PSoC4/SDCard_SPI.c **** ;     Writes a 256 byte buffer to the SPI port
 178:.\Generated_Source\PSoC4/SDCard_SPI.c **** ;
 179:.\Generated_Source\PSoC4/SDCard_SPI.c **** ;-----------------------------------------------------------------------------
 180:.\Generated_Source\PSoC4/SDCard_SPI.c **** ;
 181:.\Generated_Source\PSoC4/SDCard_SPI.c **** ;  ARGUMENTS:
 182:.\Generated_Source\PSoC4/SDCard_SPI.c **** ;     A:X  Pointer to String
 183:.\Generated_Source\PSoC4/SDCard_SPI.c **** ;          A contains MSB of string address
 184:.\Generated_Source\PSoC4/SDCard_SPI.c **** ;          X contains LSB of string address
 185:.\Generated_Source\PSoC4/SDCard_SPI.c **** ;
 186:.\Generated_Source\PSoC4/SDCard_SPI.c **** ;
 187:.\Generated_Source\PSoC4/SDCard_SPI.c **** ;  RETURNS:  none
 188:.\Generated_Source\PSoC4/SDCard_SPI.c **** ;
 189:.\Generated_Source\PSoC4/SDCard_SPI.c **** ;  SIDE EFFECTS: 
 190:.\Generated_Source\PSoC4/SDCard_SPI.c **** ;    The A and X registers may be modified by this or future implementations
 191:.\Generated_Source\PSoC4/SDCard_SPI.c **** ;    of this function.  The same is true for all RAM page pointer registers in
 192:.\Generated_Source\PSoC4/SDCard_SPI.c **** ;    the Large Memory Model.  When necessary, it is the calling function's
 193:.\Generated_Source\PSoC4/SDCard_SPI.c **** ;    responsibility to perserve their values across calls to fastcall16 
 194:.\Generated_Source\PSoC4/SDCard_SPI.c **** ;    functions.
 195:.\Generated_Source\PSoC4/SDCard_SPI.c **** ;
 196:.\Generated_Source\PSoC4/SDCard_SPI.c **** ;
 197:.\Generated_Source\PSoC4/SDCard_SPI.c **** ;  THEORY of OPERATION or PROCEDURE:
 198:.\Generated_Source\PSoC4/SDCard_SPI.c **** ;     Writes data to the TX buffer register.
ARM GAS  C:\Users\srvs\AppData\Local\Temp\cct5qM3z.s 			page 8


 199:.\Generated_Source\PSoC4/SDCard_SPI.c **** ;
 200:.\Generated_Source\PSoC4/SDCard_SPI.c **** */
 201:.\Generated_Source\PSoC4/SDCard_SPI.c **** void  SDCard_WriteBuff256(char * sRamBuff)
 202:.\Generated_Source\PSoC4/SDCard_SPI.c **** {
 198              		.loc 1 202 0
 199              		.cfi_startproc
 200 0000 80B5     		push	{r7, lr}
 201              	.LCFI11:
 202              		.cfi_def_cfa_offset 8
 203              		.cfi_offset 7, -8
 204              		.cfi_offset 14, -4
 205 0002 84B0     		sub	sp, sp, #16
 206              	.LCFI12:
 207              		.cfi_def_cfa_offset 24
 208 0004 00AF     		add	r7, sp, #0
 209              	.LCFI13:
 210              		.cfi_def_cfa_register 7
 211 0006 7860     		str	r0, [r7, #4]
 203:.\Generated_Source\PSoC4/SDCard_SPI.c **** 	uint32 i, temp;
 204:.\Generated_Source\PSoC4/SDCard_SPI.c **** 	for(i=0; i<256; i++)
 212              		.loc 1 204 0
 213 0008 0023     		mov	r3, #0
 214 000a BB60     		str	r3, [r7, #8]
 215 000c 12E0     		b	.L12
 216              	.L14:
 205:.\Generated_Source\PSoC4/SDCard_SPI.c **** 	{
 206:.\Generated_Source\PSoC4/SDCard_SPI.c **** 		SDCard_SPIM_SpiUartWriteTxData((uint32)sRamBuff[i]);
 217              		.loc 1 206 0
 218 000e 7A68     		ldr	r2, [r7, #4]
 219 0010 BB68     		ldr	r3, [r7, #8]
 220 0012 D318     		add	r3, r2, r3
 221 0014 1B78     		ldrb	r3, [r3]
 222 0016 181C     		mov	r0, r3
 223 0018 FFF7FEFF 		bl	SDCard_SPIM_SpiUartWriteTxData
 224              	.L13:
 207:.\Generated_Source\PSoC4/SDCard_SPI.c **** 		while(! (SDCard_SPIM_SpiUartGetRxBufferSize() > 0));
 225              		.loc 1 207 0
 226 001c FFF7FEFF 		bl	SDCard_SPIM_SpiUartGetRxBufferSize
 227 0020 031C     		mov	r3, r0
 228 0022 002B     		cmp	r3, #0
 229 0024 FAD0     		beq	.L13
 208:.\Generated_Source\PSoC4/SDCard_SPI.c **** 		temp = SDCard_SPIM_SpiUartReadRxData();
 230              		.loc 1 208 0
 231 0026 FFF7FEFF 		bl	SDCard_SPIM_SpiUartReadRxData
 232 002a 031C     		mov	r3, r0
 233 002c FB60     		str	r3, [r7, #12]
 234              		.loc 1 204 0
 235 002e BB68     		ldr	r3, [r7, #8]
 236 0030 0133     		add	r3, r3, #1
 237 0032 BB60     		str	r3, [r7, #8]
 238              	.L12:
 239 0034 BB68     		ldr	r3, [r7, #8]
 240 0036 FF2B     		cmp	r3, #255
 241 0038 E9D9     		bls	.L14
 209:.\Generated_Source\PSoC4/SDCard_SPI.c **** 	}
 210:.\Generated_Source\PSoC4/SDCard_SPI.c **** }
 242              		.loc 1 210 0
ARM GAS  C:\Users\srvs\AppData\Local\Temp\cct5qM3z.s 			page 9


 243 003a BD46     		mov	sp, r7
 244 003c 04B0     		add	sp, sp, #16
 245              		@ sp needed for prologue
 246 003e 80BD     		pop	{r7, pc}
 247              		.cfi_endproc
 248              	.LFE24:
 249              		.size	SDCard_WriteBuff256, .-SDCard_WriteBuff256
 250              		.section	.text.SDCard_WriteBuff,"ax",%progbits
 251              		.align	2
 252              		.global	SDCard_WriteBuff
 253              		.code	16
 254              		.thumb_func
 255              		.type	SDCard_WriteBuff, %function
 256              	SDCard_WriteBuff:
 257              	.LFB25:
 211:.\Generated_Source\PSoC4/SDCard_SPI.c **** 
 212:.\Generated_Source\PSoC4/SDCard_SPI.c **** /*
 213:.\Generated_Source\PSoC4/SDCard_SPI.c **** ;-----------------------------------------------------------------------------
 214:.\Generated_Source\PSoC4/SDCard_SPI.c **** ;  FUNCTION NAME: SDCard_WriteBuff(uint8 * pBuff, uint8 bCnt)
 215:.\Generated_Source\PSoC4/SDCard_SPI.c **** ;
 216:.\Generated_Source\PSoC4/SDCard_SPI.c **** ;  DESCRIPTION:
 217:.\Generated_Source\PSoC4/SDCard_SPI.c **** ;     Writes n bytes to the SPI port
 218:.\Generated_Source\PSoC4/SDCard_SPI.c **** ;
 219:.\Generated_Source\PSoC4/SDCard_SPI.c **** ;-----------------------------------------------------------------------------
 220:.\Generated_Source\PSoC4/SDCard_SPI.c **** ;
 221:.\Generated_Source\PSoC4/SDCard_SPI.c **** ;  ARGUMENTS:
 222:.\Generated_Source\PSoC4/SDCard_SPI.c **** ;  FASTCALL16 ARGUMENTS:
 223:.\Generated_Source\PSoC4/SDCard_SPI.c **** ;
 224:.\Generated_Source\PSoC4/SDCard_SPI.c **** ;   [SP-3] => pBuff LSB Address.
 225:.\Generated_Source\PSoC4/SDCard_SPI.c **** ;   [SP-4] => pBuff MSB Address.
 226:.\Generated_Source\PSoC4/SDCard_SPI.c **** ;   [SP-5] => Buffer length to write.
 227:.\Generated_Source\PSoC4/SDCard_SPI.c **** ;
 228:.\Generated_Source\PSoC4/SDCard_SPI.c **** ;  RETURNS:  none
 229:.\Generated_Source\PSoC4/SDCard_SPI.c **** ;
 230:.\Generated_Source\PSoC4/SDCard_SPI.c **** ;  SIDE EFFECTS: 
 231:.\Generated_Source\PSoC4/SDCard_SPI.c **** ;    The A and X registers may be modified by this or future implementations
 232:.\Generated_Source\PSoC4/SDCard_SPI.c **** ;    of this function.  The same is true for all RAM page pointer registers in
 233:.\Generated_Source\PSoC4/SDCard_SPI.c **** ;    the Large Memory Model.  When necessary, it is the calling function's
 234:.\Generated_Source\PSoC4/SDCard_SPI.c **** ;    responsibility to perserve their values across calls to fastcall16 
 235:.\Generated_Source\PSoC4/SDCard_SPI.c **** ;    functions.
 236:.\Generated_Source\PSoC4/SDCard_SPI.c **** ;
 237:.\Generated_Source\PSoC4/SDCard_SPI.c **** ;
 238:.\Generated_Source\PSoC4/SDCard_SPI.c **** ;  THEORY of OPERATION or PROCEDURE:
 239:.\Generated_Source\PSoC4/SDCard_SPI.c **** ;     Writes n data byte to the TX buffer register.
 240:.\Generated_Source\PSoC4/SDCard_SPI.c **** ;
 241:.\Generated_Source\PSoC4/SDCard_SPI.c **** */
 242:.\Generated_Source\PSoC4/SDCard_SPI.c **** void  SDCard_WriteBuff(char * sRamBuff, uint8 bCnt)
 243:.\Generated_Source\PSoC4/SDCard_SPI.c **** {
 258              		.loc 1 243 0
 259              		.cfi_startproc
 260 0000 80B5     		push	{r7, lr}
 261              	.LCFI14:
 262              		.cfi_def_cfa_offset 8
 263              		.cfi_offset 7, -8
 264              		.cfi_offset 14, -4
 265 0002 84B0     		sub	sp, sp, #16
 266              	.LCFI15:
ARM GAS  C:\Users\srvs\AppData\Local\Temp\cct5qM3z.s 			page 10


 267              		.cfi_def_cfa_offset 24
 268 0004 00AF     		add	r7, sp, #0
 269              	.LCFI16:
 270              		.cfi_def_cfa_register 7
 271 0006 7860     		str	r0, [r7, #4]
 272 0008 0A1C     		mov	r2, r1
 273 000a FB1C     		add	r3, r7, #3
 274 000c 1A70     		strb	r2, [r3]
 244:.\Generated_Source\PSoC4/SDCard_SPI.c **** 	uint32 i, temp;
 245:.\Generated_Source\PSoC4/SDCard_SPI.c **** 	for(i=0; i<bCnt; i++)
 275              		.loc 1 245 0
 276 000e 0023     		mov	r3, #0
 277 0010 BB60     		str	r3, [r7, #8]
 278 0012 12E0     		b	.L17
 279              	.L19:
 246:.\Generated_Source\PSoC4/SDCard_SPI.c **** 	{
 247:.\Generated_Source\PSoC4/SDCard_SPI.c **** 		SDCard_SPIM_SpiUartWriteTxData((uint32)sRamBuff[i]);
 280              		.loc 1 247 0
 281 0014 7A68     		ldr	r2, [r7, #4]
 282 0016 BB68     		ldr	r3, [r7, #8]
 283 0018 D318     		add	r3, r2, r3
 284 001a 1B78     		ldrb	r3, [r3]
 285 001c 181C     		mov	r0, r3
 286 001e FFF7FEFF 		bl	SDCard_SPIM_SpiUartWriteTxData
 287              	.L18:
 248:.\Generated_Source\PSoC4/SDCard_SPI.c **** 		while(! (SDCard_SPIM_SpiUartGetRxBufferSize() > 0));
 288              		.loc 1 248 0
 289 0022 FFF7FEFF 		bl	SDCard_SPIM_SpiUartGetRxBufferSize
 290 0026 031C     		mov	r3, r0
 291 0028 002B     		cmp	r3, #0
 292 002a FAD0     		beq	.L18
 249:.\Generated_Source\PSoC4/SDCard_SPI.c **** 		temp = SDCard_SPIM_SpiUartReadRxData();
 293              		.loc 1 249 0
 294 002c FFF7FEFF 		bl	SDCard_SPIM_SpiUartReadRxData
 295 0030 031C     		mov	r3, r0
 296 0032 FB60     		str	r3, [r7, #12]
 297              		.loc 1 245 0
 298 0034 BB68     		ldr	r3, [r7, #8]
 299 0036 0133     		add	r3, r3, #1
 300 0038 BB60     		str	r3, [r7, #8]
 301              	.L17:
 302 003a FB1C     		add	r3, r7, #3
 303 003c 1A78     		ldrb	r2, [r3]
 304 003e BB68     		ldr	r3, [r7, #8]
 305 0040 9A42     		cmp	r2, r3
 306 0042 E7D8     		bhi	.L19
 250:.\Generated_Source\PSoC4/SDCard_SPI.c **** 	}
 251:.\Generated_Source\PSoC4/SDCard_SPI.c **** }
 307              		.loc 1 251 0
 308 0044 BD46     		mov	sp, r7
 309 0046 04B0     		add	sp, sp, #16
 310              		@ sp needed for prologue
 311 0048 80BD     		pop	{r7, pc}
 312              		.cfi_endproc
 313              	.LFE25:
 314              		.size	SDCard_WriteBuff, .-SDCard_WriteBuff
 315 004a C046     		.section	.text.SDCard_ReadBuff,"ax",%progbits
ARM GAS  C:\Users\srvs\AppData\Local\Temp\cct5qM3z.s 			page 11


 316              		.align	2
 317              		.global	SDCard_ReadBuff
 318              		.code	16
 319              		.thumb_func
 320              		.type	SDCard_ReadBuff, %function
 321              	SDCard_ReadBuff:
 322              	.LFB26:
 252:.\Generated_Source\PSoC4/SDCard_SPI.c **** 
 253:.\Generated_Source\PSoC4/SDCard_SPI.c **** /*
 254:.\Generated_Source\PSoC4/SDCard_SPI.c **** ;-----------------------------------------------------------------------------
 255:.\Generated_Source\PSoC4/SDCard_SPI.c **** ;  FUNCTION NAME: SDCard_ReadBuff(uint8 * pBuff, uint8 bCnt)
 256:.\Generated_Source\PSoC4/SDCard_SPI.c **** ;
 257:.\Generated_Source\PSoC4/SDCard_SPI.c **** ;  DESCRIPTION:
 258:.\Generated_Source\PSoC4/SDCard_SPI.c **** ;     Reads n bytes from the SPI port
 259:.\Generated_Source\PSoC4/SDCard_SPI.c **** ;
 260:.\Generated_Source\PSoC4/SDCard_SPI.c **** ;-----------------------------------------------------------------------------
 261:.\Generated_Source\PSoC4/SDCard_SPI.c **** ;
 262:.\Generated_Source\PSoC4/SDCard_SPI.c **** ;  ARGUMENTS:
 263:.\Generated_Source\PSoC4/SDCard_SPI.c **** ;  FASTCALL16 ARGUMENTS:
 264:.\Generated_Source\PSoC4/SDCard_SPI.c **** ;
 265:.\Generated_Source\PSoC4/SDCard_SPI.c **** ;   [SP-3] => pBuff LSB Address.
 266:.\Generated_Source\PSoC4/SDCard_SPI.c **** ;   [SP-4] => pBuff MSB Address.
 267:.\Generated_Source\PSoC4/SDCard_SPI.c **** ;   [SP-5] => Buffer length to read (bCnt).
 268:.\Generated_Source\PSoC4/SDCard_SPI.c **** ;
 269:.\Generated_Source\PSoC4/SDCard_SPI.c **** ;
 270:.\Generated_Source\PSoC4/SDCard_SPI.c **** ;  RETURNS:  none
 271:.\Generated_Source\PSoC4/SDCard_SPI.c **** ;
 272:.\Generated_Source\PSoC4/SDCard_SPI.c **** ;  SIDE EFFECTS: 
 273:.\Generated_Source\PSoC4/SDCard_SPI.c **** ;    The A and X registers may be modified by this or future implementations
 274:.\Generated_Source\PSoC4/SDCard_SPI.c **** ;    of this function.  The same is true for all RAM page pointer registers in
 275:.\Generated_Source\PSoC4/SDCard_SPI.c **** ;    the Large Memory Model.  When necessary, it is the calling function's
 276:.\Generated_Source\PSoC4/SDCard_SPI.c **** ;    responsibility to perserve their values across calls to fastcall16 
 277:.\Generated_Source\PSoC4/SDCard_SPI.c **** ;    functions.
 278:.\Generated_Source\PSoC4/SDCard_SPI.c **** ;
 279:.\Generated_Source\PSoC4/SDCard_SPI.c **** ;
 280:.\Generated_Source\PSoC4/SDCard_SPI.c **** ;  THEORY of OPERATION or PROCEDURE:
 281:.\Generated_Source\PSoC4/SDCard_SPI.c **** ;     Writes data to the TX buffer register.
 282:.\Generated_Source\PSoC4/SDCard_SPI.c **** ;
 283:.\Generated_Source\PSoC4/SDCard_SPI.c **** */
 284:.\Generated_Source\PSoC4/SDCard_SPI.c **** void  SDCard_ReadBuff(char * sRamBuff, uint8 bCnt)
 285:.\Generated_Source\PSoC4/SDCard_SPI.c **** {
 323              		.loc 1 285 0
 324              		.cfi_startproc
 325 0000 90B5     		push	{r4, r7, lr}
 326              	.LCFI17:
 327              		.cfi_def_cfa_offset 12
 328              		.cfi_offset 4, -12
 329              		.cfi_offset 7, -8
 330              		.cfi_offset 14, -4
 331 0002 85B0     		sub	sp, sp, #20
 332              	.LCFI18:
 333              		.cfi_def_cfa_offset 32
 334 0004 00AF     		add	r7, sp, #0
 335              	.LCFI19:
 336              		.cfi_def_cfa_register 7
 337 0006 7860     		str	r0, [r7, #4]
 338 0008 0A1C     		mov	r2, r1
ARM GAS  C:\Users\srvs\AppData\Local\Temp\cct5qM3z.s 			page 12


 339 000a FB1C     		add	r3, r7, #3
 340 000c 1A70     		strb	r2, [r3]
 286:.\Generated_Source\PSoC4/SDCard_SPI.c **** 	uint32 i;
 287:.\Generated_Source\PSoC4/SDCard_SPI.c **** 	for(i=0; i<bCnt; i++)
 341              		.loc 1 287 0
 342 000e 0023     		mov	r3, #0
 343 0010 FB60     		str	r3, [r7, #12]
 344 0012 12E0     		b	.L22
 345              	.L24:
 288:.\Generated_Source\PSoC4/SDCard_SPI.c **** 	{
 289:.\Generated_Source\PSoC4/SDCard_SPI.c **** 		SDCard_SPIM_SpiUartWriteTxData(0xFF);
 346              		.loc 1 289 0
 347 0014 FF20     		mov	r0, #255
 348 0016 FFF7FEFF 		bl	SDCard_SPIM_SpiUartWriteTxData
 349              	.L23:
 290:.\Generated_Source\PSoC4/SDCard_SPI.c **** 		while(! (SDCard_SPIM_SpiUartGetRxBufferSize() > 0));
 350              		.loc 1 290 0
 351 001a FFF7FEFF 		bl	SDCard_SPIM_SpiUartGetRxBufferSize
 352 001e 031C     		mov	r3, r0
 353 0020 002B     		cmp	r3, #0
 354 0022 FAD0     		beq	.L23
 291:.\Generated_Source\PSoC4/SDCard_SPI.c **** 		sRamBuff[i] = (char) SDCard_SPIM_SpiUartReadRxData();
 355              		.loc 1 291 0
 356 0024 7A68     		ldr	r2, [r7, #4]
 357 0026 FB68     		ldr	r3, [r7, #12]
 358 0028 D418     		add	r4, r2, r3
 359 002a FFF7FEFF 		bl	SDCard_SPIM_SpiUartReadRxData
 360 002e 031C     		mov	r3, r0
 361 0030 DBB2     		uxtb	r3, r3
 362 0032 2370     		strb	r3, [r4]
 363              		.loc 1 287 0
 364 0034 FB68     		ldr	r3, [r7, #12]
 365 0036 0133     		add	r3, r3, #1
 366 0038 FB60     		str	r3, [r7, #12]
 367              	.L22:
 368 003a FB1C     		add	r3, r7, #3
 369 003c 1A78     		ldrb	r2, [r3]
 370 003e FB68     		ldr	r3, [r7, #12]
 371 0040 9A42     		cmp	r2, r3
 372 0042 E7D8     		bhi	.L24
 292:.\Generated_Source\PSoC4/SDCard_SPI.c **** 	}
 293:.\Generated_Source\PSoC4/SDCard_SPI.c **** }
 373              		.loc 1 293 0
 374 0044 BD46     		mov	sp, r7
 375 0046 05B0     		add	sp, sp, #20
 376              		@ sp needed for prologue
 377 0048 90BD     		pop	{r4, r7, pc}
 378              		.cfi_endproc
 379              	.LFE26:
 380              		.size	SDCard_ReadBuff, .-SDCard_ReadBuff
 381 004a C046     		.section	.text.SDCard_ReadBuff256,"ax",%progbits
 382              		.align	2
 383              		.global	SDCard_ReadBuff256
 384              		.code	16
 385              		.thumb_func
 386              		.type	SDCard_ReadBuff256, %function
 387              	SDCard_ReadBuff256:
ARM GAS  C:\Users\srvs\AppData\Local\Temp\cct5qM3z.s 			page 13


 388              	.LFB27:
 294:.\Generated_Source\PSoC4/SDCard_SPI.c **** 
 295:.\Generated_Source\PSoC4/SDCard_SPI.c **** /*
 296:.\Generated_Source\PSoC4/SDCard_SPI.c **** ;-----------------------------------------------------------------------------
 297:.\Generated_Source\PSoC4/SDCard_SPI.c **** ;  FUNCTION NAME: SDCard_ReadBuff256(char * sRamBuff)
 298:.\Generated_Source\PSoC4/SDCard_SPI.c **** ;
 299:.\Generated_Source\PSoC4/SDCard_SPI.c **** ;  DESCRIPTION:
 300:.\Generated_Source\PSoC4/SDCard_SPI.c **** ;     Reads 256 bytes into a buffer from the SPI port
 301:.\Generated_Source\PSoC4/SDCard_SPI.c **** ;
 302:.\Generated_Source\PSoC4/SDCard_SPI.c **** ;-----------------------------------------------------------------------------
 303:.\Generated_Source\PSoC4/SDCard_SPI.c **** ;
 304:.\Generated_Source\PSoC4/SDCard_SPI.c **** ;  ARGUMENTS:
 305:.\Generated_Source\PSoC4/SDCard_SPI.c **** ;     A:X  Pointer to String
 306:.\Generated_Source\PSoC4/SDCard_SPI.c **** ;          A contains MSB of string address
 307:.\Generated_Source\PSoC4/SDCard_SPI.c **** ;          X contains LSB of string address
 308:.\Generated_Source\PSoC4/SDCard_SPI.c **** ;
 309:.\Generated_Source\PSoC4/SDCard_SPI.c **** ;
 310:.\Generated_Source\PSoC4/SDCard_SPI.c **** ;  RETURNS:  none
 311:.\Generated_Source\PSoC4/SDCard_SPI.c **** ;
 312:.\Generated_Source\PSoC4/SDCard_SPI.c **** ;  SIDE EFFECTS: 
 313:.\Generated_Source\PSoC4/SDCard_SPI.c **** ;    The A and X registers may be modified by this or future implementations
 314:.\Generated_Source\PSoC4/SDCard_SPI.c **** ;    of this function.  The same is true for all RAM page pointer registers in
 315:.\Generated_Source\PSoC4/SDCard_SPI.c **** ;    the Large Memory Model.  When necessary, it is the calling function's
 316:.\Generated_Source\PSoC4/SDCard_SPI.c **** ;    responsibility to perserve their values across calls to fastcall16 
 317:.\Generated_Source\PSoC4/SDCard_SPI.c **** ;    functions.
 318:.\Generated_Source\PSoC4/SDCard_SPI.c **** ;
 319:.\Generated_Source\PSoC4/SDCard_SPI.c **** ;
 320:.\Generated_Source\PSoC4/SDCard_SPI.c **** ;  THEORY of OPERATION or PROCEDURE:
 321:.\Generated_Source\PSoC4/SDCard_SPI.c **** ;     Reads data from the TX buffer register.
 322:.\Generated_Source\PSoC4/SDCard_SPI.c **** ;
 323:.\Generated_Source\PSoC4/SDCard_SPI.c **** */
 324:.\Generated_Source\PSoC4/SDCard_SPI.c **** void  SDCard_ReadBuff256(char * sRamBuff)
 325:.\Generated_Source\PSoC4/SDCard_SPI.c **** {
 389              		.loc 1 325 0
 390              		.cfi_startproc
 391 0000 90B5     		push	{r4, r7, lr}
 392              	.LCFI20:
 393              		.cfi_def_cfa_offset 12
 394              		.cfi_offset 4, -12
 395              		.cfi_offset 7, -8
 396              		.cfi_offset 14, -4
 397 0002 85B0     		sub	sp, sp, #20
 398              	.LCFI21:
 399              		.cfi_def_cfa_offset 32
 400 0004 00AF     		add	r7, sp, #0
 401              	.LCFI22:
 402              		.cfi_def_cfa_register 7
 403 0006 7860     		str	r0, [r7, #4]
 326:.\Generated_Source\PSoC4/SDCard_SPI.c **** 	uint32 i;
 327:.\Generated_Source\PSoC4/SDCard_SPI.c **** 	for(i=0; i<256; i++)
 404              		.loc 1 327 0
 405 0008 0023     		mov	r3, #0
 406 000a FB60     		str	r3, [r7, #12]
 407 000c 12E0     		b	.L27
 408              	.L29:
 328:.\Generated_Source\PSoC4/SDCard_SPI.c **** 	{
 329:.\Generated_Source\PSoC4/SDCard_SPI.c **** 		SDCard_SPIM_SpiUartWriteTxData(0xFF);
ARM GAS  C:\Users\srvs\AppData\Local\Temp\cct5qM3z.s 			page 14


 409              		.loc 1 329 0
 410 000e FF20     		mov	r0, #255
 411 0010 FFF7FEFF 		bl	SDCard_SPIM_SpiUartWriteTxData
 412              	.L28:
 330:.\Generated_Source\PSoC4/SDCard_SPI.c **** 		while(! (SDCard_SPIM_SpiUartGetRxBufferSize() > 0));
 413              		.loc 1 330 0
 414 0014 FFF7FEFF 		bl	SDCard_SPIM_SpiUartGetRxBufferSize
 415 0018 031C     		mov	r3, r0
 416 001a 002B     		cmp	r3, #0
 417 001c FAD0     		beq	.L28
 331:.\Generated_Source\PSoC4/SDCard_SPI.c **** 		sRamBuff[i] = (char) SDCard_SPIM_SpiUartReadRxData();
 418              		.loc 1 331 0
 419 001e 7A68     		ldr	r2, [r7, #4]
 420 0020 FB68     		ldr	r3, [r7, #12]
 421 0022 D418     		add	r4, r2, r3
 422 0024 FFF7FEFF 		bl	SDCard_SPIM_SpiUartReadRxData
 423 0028 031C     		mov	r3, r0
 424 002a DBB2     		uxtb	r3, r3
 425 002c 2370     		strb	r3, [r4]
 426              		.loc 1 327 0
 427 002e FB68     		ldr	r3, [r7, #12]
 428 0030 0133     		add	r3, r3, #1
 429 0032 FB60     		str	r3, [r7, #12]
 430              	.L27:
 431 0034 FB68     		ldr	r3, [r7, #12]
 432 0036 FF2B     		cmp	r3, #255
 433 0038 E9D9     		bls	.L29
 332:.\Generated_Source\PSoC4/SDCard_SPI.c **** 	}
 333:.\Generated_Source\PSoC4/SDCard_SPI.c **** }
 434              		.loc 1 333 0
 435 003a BD46     		mov	sp, r7
 436 003c 05B0     		add	sp, sp, #20
 437              		@ sp needed for prologue
 438 003e 90BD     		pop	{r4, r7, pc}
 439              		.cfi_endproc
 440              	.LFE27:
 441              		.size	SDCard_ReadBuff256, .-SDCard_ReadBuff256
 442              		.section	.text.SDCard_bReadRxData,"ax",%progbits
 443              		.align	2
 444              		.global	SDCard_bReadRxData
 445              		.code	16
 446              		.thumb_func
 447              		.type	SDCard_bReadRxData, %function
 448              	SDCard_bReadRxData:
 449              	.LFB28:
 334:.\Generated_Source\PSoC4/SDCard_SPI.c **** 
 335:.\Generated_Source\PSoC4/SDCard_SPI.c **** /*
 336:.\Generated_Source\PSoC4/SDCard_SPI.c **** ;-----------------------------------------------------------------------------
 337:.\Generated_Source\PSoC4/SDCard_SPI.c **** ;  FUNCTION NAME: SDCard_bReadRxData
 338:.\Generated_Source\PSoC4/SDCard_SPI.c **** ;
 339:.\Generated_Source\PSoC4/SDCard_SPI.c **** ;  DESCRIPTION:
 340:.\Generated_Source\PSoC4/SDCard_SPI.c **** ;     Reads the RX buffer register.  Should check the status regiser to make
 341:.\Generated_Source\PSoC4/SDCard_SPI.c **** ;     sure data is valid.
 342:.\Generated_Source\PSoC4/SDCard_SPI.c **** ;
 343:.\Generated_Source\PSoC4/SDCard_SPI.c **** ;-----------------------------------------------------------------------------
 344:.\Generated_Source\PSoC4/SDCard_SPI.c **** ;
 345:.\Generated_Source\PSoC4/SDCard_SPI.c **** ;  ARGUMENTS:  none
ARM GAS  C:\Users\srvs\AppData\Local\Temp\cct5qM3z.s 			page 15


 346:.\Generated_Source\PSoC4/SDCard_SPI.c **** ;
 347:.\Generated_Source\PSoC4/SDCard_SPI.c **** ;  RETURNS:
 348:.\Generated_Source\PSoC4/SDCard_SPI.c **** ;     bRxData - returned in A.
 349:.\Generated_Source\PSoC4/SDCard_SPI.c **** ;
 350:.\Generated_Source\PSoC4/SDCard_SPI.c **** ;  SIDE EFFECTS: 
 351:.\Generated_Source\PSoC4/SDCard_SPI.c **** ;    The A and X registers may be modified by this or future implementations
 352:.\Generated_Source\PSoC4/SDCard_SPI.c **** ;    of this function.  The same is true for all RAM page pointer registers in
 353:.\Generated_Source\PSoC4/SDCard_SPI.c **** ;    the Large Memory Model.  When necessary, it is the calling function's
 354:.\Generated_Source\PSoC4/SDCard_SPI.c **** ;    responsibility to perserve their values across calls to fastcall16 
 355:.\Generated_Source\PSoC4/SDCard_SPI.c **** ;    functions.
 356:.\Generated_Source\PSoC4/SDCard_SPI.c **** ;
 357:.\Generated_Source\PSoC4/SDCard_SPI.c **** ;  THEORY of OPERATION or PROCEDURE:
 358:.\Generated_Source\PSoC4/SDCard_SPI.c **** ;
 359:.\Generated_Source\PSoC4/SDCard_SPI.c **** */
 360:.\Generated_Source\PSoC4/SDCard_SPI.c **** uint8  SDCard_bReadRxData(void)
 361:.\Generated_Source\PSoC4/SDCard_SPI.c **** {
 450              		.loc 1 361 0
 451              		.cfi_startproc
 452 0000 80B5     		push	{r7, lr}
 453              	.LCFI23:
 454              		.cfi_def_cfa_offset 8
 455              		.cfi_offset 7, -8
 456              		.cfi_offset 14, -4
 457 0002 82B0     		sub	sp, sp, #8
 458              	.LCFI24:
 459              		.cfi_def_cfa_offset 16
 460 0004 00AF     		add	r7, sp, #0
 461              	.LCFI25:
 462              		.cfi_def_cfa_register 7
 362:.\Generated_Source\PSoC4/SDCard_SPI.c **** 	uint8 buf;
 363:.\Generated_Source\PSoC4/SDCard_SPI.c **** 	buf = (uint8) SDCard_SPIM_SpiUartReadRxData();
 463              		.loc 1 363 0
 464 0006 FFF7FEFF 		bl	SDCard_SPIM_SpiUartReadRxData
 465 000a 021C     		mov	r2, r0
 466 000c FB1D     		add	r3, r7, #7
 467 000e 1A70     		strb	r2, [r3]
 364:.\Generated_Source\PSoC4/SDCard_SPI.c **** 	return(buf);
 468              		.loc 1 364 0
 469 0010 FB1D     		add	r3, r7, #7
 470 0012 1B78     		ldrb	r3, [r3]
 365:.\Generated_Source\PSoC4/SDCard_SPI.c **** }
 471              		.loc 1 365 0
 472 0014 181C     		mov	r0, r3
 473 0016 BD46     		mov	sp, r7
 474 0018 02B0     		add	sp, sp, #8
 475              		@ sp needed for prologue
 476 001a 80BD     		pop	{r7, pc}
 477              		.cfi_endproc
 478              	.LFE28:
 479              		.size	SDCard_bReadRxData, .-SDCard_bReadRxData
 480              		.section	.text.SDCard_bReadStatus,"ax",%progbits
 481              		.align	2
 482              		.global	SDCard_bReadStatus
 483              		.code	16
 484              		.thumb_func
 485              		.type	SDCard_bReadStatus, %function
 486              	SDCard_bReadStatus:
ARM GAS  C:\Users\srvs\AppData\Local\Temp\cct5qM3z.s 			page 16


 487              	.LFB29:
 366:.\Generated_Source\PSoC4/SDCard_SPI.c **** 
 367:.\Generated_Source\PSoC4/SDCard_SPI.c **** /*
 368:.\Generated_Source\PSoC4/SDCard_SPI.c **** ;-----------------------------------------------------------------------------
 369:.\Generated_Source\PSoC4/SDCard_SPI.c **** ;  FUNCTION NAME: SDCard_ReadStatus
 370:.\Generated_Source\PSoC4/SDCard_SPI.c **** ;
 371:.\Generated_Source\PSoC4/SDCard_SPI.c **** ;  DESCRIPTION:
 372:.\Generated_Source\PSoC4/SDCard_SPI.c **** ;     Reads the SPIM Status bits in the Control/Status register.
 373:.\Generated_Source\PSoC4/SDCard_SPI.c **** ;
 374:.\Generated_Source\PSoC4/SDCard_SPI.c **** ;-----------------------------------------------------------------------------
 375:.\Generated_Source\PSoC4/SDCard_SPI.c **** ;
 376:.\Generated_Source\PSoC4/SDCard_SPI.c **** ;  ARGUMENTS:  none
 377:.\Generated_Source\PSoC4/SDCard_SPI.c **** ;
 378:.\Generated_Source\PSoC4/SDCard_SPI.c **** ;  RETURNS:
 379:.\Generated_Source\PSoC4/SDCard_SPI.c **** ;     uint8  bStatus - transmit status data.  Use the defined bit masks.
 380:.\Generated_Source\PSoC4/SDCard_SPI.c **** ;        Returned in Accumulator.
 381:.\Generated_Source\PSoC4/SDCard_SPI.c **** ;
 382:.\Generated_Source\PSoC4/SDCard_SPI.c **** ;  SIDE EFFECTS: 
 383:.\Generated_Source\PSoC4/SDCard_SPI.c **** ;    The A and X registers may be modified by this or future implementations
 384:.\Generated_Source\PSoC4/SDCard_SPI.c **** ;    of this function.  The same is true for all RAM page pointer registers in
 385:.\Generated_Source\PSoC4/SDCard_SPI.c **** ;    the Large Memory Model.  When necessary, it is the calling function's
 386:.\Generated_Source\PSoC4/SDCard_SPI.c **** ;    responsibility to perserve their values across calls to fastcall16 
 387:.\Generated_Source\PSoC4/SDCard_SPI.c **** ;    functions.
 388:.\Generated_Source\PSoC4/SDCard_SPI.c **** ;
 389:.\Generated_Source\PSoC4/SDCard_SPI.c **** ;  THEORY of OPERATION or PROCEDURE:
 390:.\Generated_Source\PSoC4/SDCard_SPI.c **** ;     Read the status and control register.
 391:.\Generated_Source\PSoC4/SDCard_SPI.c **** ;
 392:.\Generated_Source\PSoC4/SDCard_SPI.c **** */
 393:.\Generated_Source\PSoC4/SDCard_SPI.c **** uint8  SDCard_bReadStatus(void)
 394:.\Generated_Source\PSoC4/SDCard_SPI.c **** {
 488              		.loc 1 394 0
 489              		.cfi_startproc
 490 0000 80B5     		push	{r7, lr}
 491              	.LCFI26:
 492              		.cfi_def_cfa_offset 8
 493              		.cfi_offset 7, -8
 494              		.cfi_offset 14, -4
 495 0002 82B0     		sub	sp, sp, #8
 496              	.LCFI27:
 497              		.cfi_def_cfa_offset 16
 498 0004 00AF     		add	r7, sp, #0
 499              	.LCFI28:
 500              		.cfi_def_cfa_register 7
 395:.\Generated_Source\PSoC4/SDCard_SPI.c **** 	uint8 stat;
 396:.\Generated_Source\PSoC4/SDCard_SPI.c **** 	stat = SDCard_SPIM_SpiUartGetRxBufferSize();
 501              		.loc 1 396 0
 502 0006 FFF7FEFF 		bl	SDCard_SPIM_SpiUartGetRxBufferSize
 503 000a 021C     		mov	r2, r0
 504 000c FB1D     		add	r3, r7, #7
 505 000e 1A70     		strb	r2, [r3]
 397:.\Generated_Source\PSoC4/SDCard_SPI.c **** 	return(stat);
 506              		.loc 1 397 0
 507 0010 FB1D     		add	r3, r7, #7
 508 0012 1B78     		ldrb	r3, [r3]
 398:.\Generated_Source\PSoC4/SDCard_SPI.c **** }
 509              		.loc 1 398 0
 510 0014 181C     		mov	r0, r3
ARM GAS  C:\Users\srvs\AppData\Local\Temp\cct5qM3z.s 			page 17


 511 0016 BD46     		mov	sp, r7
 512 0018 02B0     		add	sp, sp, #8
 513              		@ sp needed for prologue
 514 001a 80BD     		pop	{r7, pc}
 515              		.cfi_endproc
 516              	.LFE29:
 517              		.size	SDCard_bReadStatus, .-SDCard_bReadStatus
 518              		.text
 519              	.Letext0: