ARM GAS  C:\Users\srvs\AppData\Local\Temp\ccYq4Mps.s 			page 1


   1              		.cpu cortex-m0
   2              		.fpu softvfp
   3              		.eabi_attribute 20, 1
   4              		.eabi_attribute 21, 1
   5              		.eabi_attribute 23, 3
   6              		.eabi_attribute 24, 1
   7              		.eabi_attribute 25, 1
   8              		.eabi_attribute 26, 1
   9              		.eabi_attribute 30, 6
  10              		.eabi_attribute 18, 4
  11              		.code	16
  12              		.file	"SDCard_SPIM_SPI.c"
  19 0000 C7000000 		.text
  19      02006800 
  19      00000201 
  19      FB0E0D00 
  19      01010101 
  20              	.Ltext0:
  21              		.cfi_sections	.debug_frame
  22              		.section	.text.SDCard_SPIM_SpiInit,"ax",%progbits
  23              		.align	2
  24              		.global	SDCard_SPIM_SpiInit
  25              		.code	16
  26              		.thumb_func
  27              		.type	SDCard_SPIM_SpiInit, %function
  28              	SDCard_SPIM_SpiInit:
  29              	.LFB0:
  30              		.file 1 ".\\Generated_Source\\PSoC4\\SDCard_SPIM_SPI.c"
   1:.\Generated_Source\PSoC4/SDCard_SPIM_SPI.c **** /*******************************************************************************
   2:.\Generated_Source\PSoC4/SDCard_SPIM_SPI.c **** * File Name: SDCard_SPIM_SPI.c
   3:.\Generated_Source\PSoC4/SDCard_SPIM_SPI.c **** * Version 1.0
   4:.\Generated_Source\PSoC4/SDCard_SPIM_SPI.c **** *
   5:.\Generated_Source\PSoC4/SDCard_SPIM_SPI.c **** * Description:
   6:.\Generated_Source\PSoC4/SDCard_SPIM_SPI.c **** *  This file provides the source code to the API for the SCB Component in
   7:.\Generated_Source\PSoC4/SDCard_SPIM_SPI.c **** *  SPI mode.
   8:.\Generated_Source\PSoC4/SDCard_SPIM_SPI.c **** *
   9:.\Generated_Source\PSoC4/SDCard_SPIM_SPI.c **** * Note:
  10:.\Generated_Source\PSoC4/SDCard_SPIM_SPI.c **** *
  11:.\Generated_Source\PSoC4/SDCard_SPIM_SPI.c **** *******************************************************************************
  12:.\Generated_Source\PSoC4/SDCard_SPIM_SPI.c **** * Copyright 2013, Cypress Semiconductor Corporation.  All rights reserved.
  13:.\Generated_Source\PSoC4/SDCard_SPIM_SPI.c **** * You may use this file only in accordance with the license, terms, conditions,
  14:.\Generated_Source\PSoC4/SDCard_SPIM_SPI.c **** * disclaimers, and limitations in the end user license agreement accompanying
  15:.\Generated_Source\PSoC4/SDCard_SPIM_SPI.c **** * the software package with which this file was provided.
  16:.\Generated_Source\PSoC4/SDCard_SPIM_SPI.c **** *******************************************************************************/
  17:.\Generated_Source\PSoC4/SDCard_SPIM_SPI.c **** 
  18:.\Generated_Source\PSoC4/SDCard_SPIM_SPI.c **** #include "SDCard_SPIM_PVT.h"
  19:.\Generated_Source\PSoC4/SDCard_SPIM_SPI.c **** #include "SDCard_SPIM_SPI_UART_PVT.h"
  20:.\Generated_Source\PSoC4/SDCard_SPIM_SPI.c **** 
  21:.\Generated_Source\PSoC4/SDCard_SPIM_SPI.c **** #if(SDCard_SPIM_SCB_MODE_UNCONFIG_CONST_CFG)
  22:.\Generated_Source\PSoC4/SDCard_SPIM_SPI.c **** 
  23:.\Generated_Source\PSoC4/SDCard_SPIM_SPI.c ****     /***************************************
ARM GAS  C:\Users\srvs\AppData\Local\Temp\ccYq4Mps.s 			page 2


  24:.\Generated_Source\PSoC4/SDCard_SPIM_SPI.c ****     *  Config Structure Initialization
  25:.\Generated_Source\PSoC4/SDCard_SPIM_SPI.c ****     ***************************************/
  26:.\Generated_Source\PSoC4/SDCard_SPIM_SPI.c **** 
  27:.\Generated_Source\PSoC4/SDCard_SPIM_SPI.c ****     const SDCard_SPIM_SPI_INIT_STRUCT SDCard_SPIM_configSpi =
  28:.\Generated_Source\PSoC4/SDCard_SPIM_SPI.c ****     {
  29:.\Generated_Source\PSoC4/SDCard_SPIM_SPI.c ****         SDCard_SPIM_SPI_MODE,
  30:.\Generated_Source\PSoC4/SDCard_SPIM_SPI.c ****         SDCard_SPIM_SPI_SUB_MODE,
  31:.\Generated_Source\PSoC4/SDCard_SPIM_SPI.c ****         SDCard_SPIM_SPI_CLOCK_MODE,
  32:.\Generated_Source\PSoC4/SDCard_SPIM_SPI.c ****         SDCard_SPIM_SPI_OVS_FACTOR,
  33:.\Generated_Source\PSoC4/SDCard_SPIM_SPI.c ****         SDCard_SPIM_SPI_MEDIAN_FILTER_ENABLE,
  34:.\Generated_Source\PSoC4/SDCard_SPIM_SPI.c ****         SDCard_SPIM_SPI_LATE_MISO_SAMPLE_ENABLE,
  35:.\Generated_Source\PSoC4/SDCard_SPIM_SPI.c ****         SDCard_SPIM_SPI_WAKE_ENABLE,
  36:.\Generated_Source\PSoC4/SDCard_SPIM_SPI.c ****         SDCard_SPIM_SPI_RX_DATA_BITS_NUM,
  37:.\Generated_Source\PSoC4/SDCard_SPIM_SPI.c ****         SDCard_SPIM_SPI_TX_DATA_BITS_NUM,
  38:.\Generated_Source\PSoC4/SDCard_SPIM_SPI.c ****         SDCard_SPIM_SPI_BITS_ORDER,
  39:.\Generated_Source\PSoC4/SDCard_SPIM_SPI.c ****         SDCard_SPIM_SPI_TRANSFER_SEPARATION,
  40:.\Generated_Source\PSoC4/SDCard_SPIM_SPI.c ****         0u,
  41:.\Generated_Source\PSoC4/SDCard_SPIM_SPI.c ****         NULL,
  42:.\Generated_Source\PSoC4/SDCard_SPIM_SPI.c ****         0u,
  43:.\Generated_Source\PSoC4/SDCard_SPIM_SPI.c ****         NULL,
  44:.\Generated_Source\PSoC4/SDCard_SPIM_SPI.c ****         SDCard_SPIM_SPI_INTERRUPT_ENABLE,
  45:.\Generated_Source\PSoC4/SDCard_SPIM_SPI.c ****         SDCard_SPIM_SPI_INTR_RX_MASK,
  46:.\Generated_Source\PSoC4/SDCard_SPIM_SPI.c ****         SDCard_SPIM_SPI_RX_TRIGGER_LEVEL,
  47:.\Generated_Source\PSoC4/SDCard_SPIM_SPI.c ****         SDCard_SPIM_SPI_INTR_TX_MASK,
  48:.\Generated_Source\PSoC4/SDCard_SPIM_SPI.c ****         SDCard_SPIM_SPI_TX_TRIGGER_LEVEL
  49:.\Generated_Source\PSoC4/SDCard_SPIM_SPI.c ****     };
  50:.\Generated_Source\PSoC4/SDCard_SPIM_SPI.c **** 
  51:.\Generated_Source\PSoC4/SDCard_SPIM_SPI.c **** 
  52:.\Generated_Source\PSoC4/SDCard_SPIM_SPI.c ****     /*******************************************************************************
  53:.\Generated_Source\PSoC4/SDCard_SPIM_SPI.c ****     * Function Name: SDCard_SPIM_SpiInit
  54:.\Generated_Source\PSoC4/SDCard_SPIM_SPI.c ****     ********************************************************************************
  55:.\Generated_Source\PSoC4/SDCard_SPIM_SPI.c ****     *
  56:.\Generated_Source\PSoC4/SDCard_SPIM_SPI.c ****     * Summary:
  57:.\Generated_Source\PSoC4/SDCard_SPIM_SPI.c ****     *  Configures the SCB for SPI operation.
  58:.\Generated_Source\PSoC4/SDCard_SPIM_SPI.c ****     *
  59:.\Generated_Source\PSoC4/SDCard_SPIM_SPI.c ****     * Parameters:
  60:.\Generated_Source\PSoC4/SDCard_SPIM_SPI.c ****     *  config:  Pointer to a structure that contains the following ordered list of
  61:.\Generated_Source\PSoC4/SDCard_SPIM_SPI.c ****     *           fields. These fields match the selections available in the
  62:.\Generated_Source\PSoC4/SDCard_SPIM_SPI.c ****     *           customizer.
  63:.\Generated_Source\PSoC4/SDCard_SPIM_SPI.c ****     *
  64:.\Generated_Source\PSoC4/SDCard_SPIM_SPI.c ****     * Return:
  65:.\Generated_Source\PSoC4/SDCard_SPIM_SPI.c ****     *  None
  66:.\Generated_Source\PSoC4/SDCard_SPIM_SPI.c ****     *
  67:.\Generated_Source\PSoC4/SDCard_SPIM_SPI.c ****     *******************************************************************************/
  68:.\Generated_Source\PSoC4/SDCard_SPIM_SPI.c ****     void SDCard_SPIM_SpiInit(const SDCard_SPIM_SPI_INIT_STRUCT *config)
  69:.\Generated_Source\PSoC4/SDCard_SPIM_SPI.c ****     {
  70:.\Generated_Source\PSoC4/SDCard_SPIM_SPI.c ****         if(NULL == config)
  71:.\Generated_Source\PSoC4/SDCard_SPIM_SPI.c ****         {
  72:.\Generated_Source\PSoC4/SDCard_SPIM_SPI.c ****             CYASSERT(0u != 0u); /* Halt execution due bad fucntion parameter */
  73:.\Generated_Source\PSoC4/SDCard_SPIM_SPI.c ****         }
  74:.\Generated_Source\PSoC4/SDCard_SPIM_SPI.c ****         else
  75:.\Generated_Source\PSoC4/SDCard_SPIM_SPI.c ****         {
  76:.\Generated_Source\PSoC4/SDCard_SPIM_SPI.c ****             /* Configure pins */
  77:.\Generated_Source\PSoC4/SDCard_SPIM_SPI.c ****             SDCard_SPIM_SetPins(SDCard_SPIM_SCB_MODE_SPI, config->mode, SDCard_SPIM_DUMMY_PARAM);
  78:.\Generated_Source\PSoC4/SDCard_SPIM_SPI.c **** 
  79:.\Generated_Source\PSoC4/SDCard_SPIM_SPI.c ****             /* Store internal configuration */
  80:.\Generated_Source\PSoC4/SDCard_SPIM_SPI.c ****             SDCard_SPIM_scbMode       = (uint8) SDCard_SPIM_SCB_MODE_SPI;
ARM GAS  C:\Users\srvs\AppData\Local\Temp\ccYq4Mps.s 			page 3


  81:.\Generated_Source\PSoC4/SDCard_SPIM_SPI.c ****             SDCard_SPIM_scbEnableWake = (uint8) config->enableWake;
  82:.\Generated_Source\PSoC4/SDCard_SPIM_SPI.c **** 
  83:.\Generated_Source\PSoC4/SDCard_SPIM_SPI.c ****             /* Set RX direction internal variables */
  84:.\Generated_Source\PSoC4/SDCard_SPIM_SPI.c ****             SDCard_SPIM_rxBuffer      =         config->rxBuffer;
  85:.\Generated_Source\PSoC4/SDCard_SPIM_SPI.c ****             SDCard_SPIM_rxDataBits    = (uint8) config->rxDataBits;
  86:.\Generated_Source\PSoC4/SDCard_SPIM_SPI.c ****             SDCard_SPIM_rxBufferSize  = (uint8) config->rxBufferSize;
  87:.\Generated_Source\PSoC4/SDCard_SPIM_SPI.c **** 
  88:.\Generated_Source\PSoC4/SDCard_SPIM_SPI.c ****             /* Set TX direction internal variables */
  89:.\Generated_Source\PSoC4/SDCard_SPIM_SPI.c ****             SDCard_SPIM_txBuffer      =         config->txBuffer;
  90:.\Generated_Source\PSoC4/SDCard_SPIM_SPI.c ****             SDCard_SPIM_txDataBits    = (uint8) config->txDataBits;
  91:.\Generated_Source\PSoC4/SDCard_SPIM_SPI.c ****             SDCard_SPIM_txBufferSize  = (uint8) config->txBufferSize;
  92:.\Generated_Source\PSoC4/SDCard_SPIM_SPI.c **** 
  93:.\Generated_Source\PSoC4/SDCard_SPIM_SPI.c **** 
  94:.\Generated_Source\PSoC4/SDCard_SPIM_SPI.c ****             /* Configure SPI interface */
  95:.\Generated_Source\PSoC4/SDCard_SPIM_SPI.c ****             SDCard_SPIM_CTRL_REG     = SDCard_SPIM_GET_CTRL_OVS(config->oversample)        |
  96:.\Generated_Source\PSoC4/SDCard_SPIM_SPI.c ****                                             SDCard_SPIM_GET_CTRL_EC_AM_MODE(config->enableWake) |
  97:.\Generated_Source\PSoC4/SDCard_SPIM_SPI.c ****                                             SDCard_SPIM_CTRL_SPI;
  98:.\Generated_Source\PSoC4/SDCard_SPIM_SPI.c **** 
  99:.\Generated_Source\PSoC4/SDCard_SPIM_SPI.c ****             SDCard_SPIM_SPI_CTRL_REG = SDCard_SPIM_GET_SPI_CTRL_CONTINUOUS    (config->transferSepe
 100:.\Generated_Source\PSoC4/SDCard_SPIM_SPI.c ****                                             SDCard_SPIM_GET_SPI_CTRL_SELECT_PRECEDE(config->submode
 101:.\Generated_Source\PSoC4/SDCard_SPIM_SPI.c ****                                                                           SDCard_SPIM_SPI_MODE_TI_P
 102:.\Generated_Source\PSoC4/SDCard_SPIM_SPI.c ****                                             SDCard_SPIM_GET_SPI_CTRL_SCLK_MODE     (config->sclkMod
 103:.\Generated_Source\PSoC4/SDCard_SPIM_SPI.c ****                                             SDCard_SPIM_GET_SPI_CTRL_LATE_MISO_SAMPLE(config->enabl
 104:.\Generated_Source\PSoC4/SDCard_SPIM_SPI.c ****                                             SDCard_SPIM_GET_SPI_CTRL_SUB_MODE      (config->submode
 105:.\Generated_Source\PSoC4/SDCard_SPIM_SPI.c ****                                             SDCard_SPIM_GET_SPI_CTRL_MASTER_MODE   (config->mode);
 106:.\Generated_Source\PSoC4/SDCard_SPIM_SPI.c **** 
 107:.\Generated_Source\PSoC4/SDCard_SPIM_SPI.c ****             /* Configure RX direction */
 108:.\Generated_Source\PSoC4/SDCard_SPIM_SPI.c ****             SDCard_SPIM_RX_CTRL_REG     =  SDCard_SPIM_GET_RX_CTRL_DATA_WIDTH(config->rxDataBits)  
 109:.\Generated_Source\PSoC4/SDCard_SPIM_SPI.c ****                                                 SDCard_SPIM_GET_RX_CTRL_BIT_ORDER (config->bitOrder
 110:.\Generated_Source\PSoC4/SDCard_SPIM_SPI.c ****                                                 SDCard_SPIM_GET_RX_CTRL_MEDIAN    (config->enableMe
 111:.\Generated_Source\PSoC4/SDCard_SPIM_SPI.c ****                                                 SDCard_SPIM_SPI_RX_CTRL;
 112:.\Generated_Source\PSoC4/SDCard_SPIM_SPI.c **** 
 113:.\Generated_Source\PSoC4/SDCard_SPIM_SPI.c ****             SDCard_SPIM_RX_FIFO_CTRL_REG = SDCard_SPIM_GET_RX_FIFO_CTRL_TRIGGER_LEVEL(config->rxTri
 114:.\Generated_Source\PSoC4/SDCard_SPIM_SPI.c **** 
 115:.\Generated_Source\PSoC4/SDCard_SPIM_SPI.c ****             /* Configure TX direction */
 116:.\Generated_Source\PSoC4/SDCard_SPIM_SPI.c ****             SDCard_SPIM_TX_CTRL_REG      = SDCard_SPIM_GET_TX_CTRL_DATA_WIDTH(config->txDataBits) |
 117:.\Generated_Source\PSoC4/SDCard_SPIM_SPI.c ****                                                 SDCard_SPIM_GET_TX_CTRL_BIT_ORDER (config->bitOrder
 118:.\Generated_Source\PSoC4/SDCard_SPIM_SPI.c ****                                                 SDCard_SPIM_SPI_TX_CTRL;
 119:.\Generated_Source\PSoC4/SDCard_SPIM_SPI.c **** 
 120:.\Generated_Source\PSoC4/SDCard_SPIM_SPI.c ****             SDCard_SPIM_TX_FIFO_CTRL_REG = SDCard_SPIM_GET_TX_FIFO_CTRL_TRIGGER_LEVEL(config->txTri
 121:.\Generated_Source\PSoC4/SDCard_SPIM_SPI.c **** 
 122:.\Generated_Source\PSoC4/SDCard_SPIM_SPI.c ****             /* Configure interrupt sources */
 123:.\Generated_Source\PSoC4/SDCard_SPIM_SPI.c ****             SDCard_SPIM_INTR_I2C_EC_MASK_REG = SDCard_SPIM_NO_INTR_SOURCES;
 124:.\Generated_Source\PSoC4/SDCard_SPIM_SPI.c ****             SDCard_SPIM_INTR_SPI_EC_MASK_REG = SDCard_SPIM_NO_INTR_SOURCES;
 125:.\Generated_Source\PSoC4/SDCard_SPIM_SPI.c ****             SDCard_SPIM_INTR_SLAVE_MASK_REG  = SDCard_SPIM_GET_SPI_INTR_SLAVE_MASK(config->rxInterr
 126:.\Generated_Source\PSoC4/SDCard_SPIM_SPI.c ****             SDCard_SPIM_INTR_MASTER_MASK_REG = SDCard_SPIM_GET_SPI_INTR_MASTER_MASK(config->txInter
 127:.\Generated_Source\PSoC4/SDCard_SPIM_SPI.c ****             SDCard_SPIM_INTR_RX_MASK_REG     = SDCard_SPIM_GET_SPI_INTR_RX_MASK(config->rxInterrupt
 128:.\Generated_Source\PSoC4/SDCard_SPIM_SPI.c ****             SDCard_SPIM_INTR_TX_MASK_REG     = SDCard_SPIM_GET_SPI_INTR_TX_MASK(config->txInterrupt
 129:.\Generated_Source\PSoC4/SDCard_SPIM_SPI.c **** 
 130:.\Generated_Source\PSoC4/SDCard_SPIM_SPI.c ****             /* Configure interrupt source */
 131:.\Generated_Source\PSoC4/SDCard_SPIM_SPI.c ****             SDCard_SPIM_SCB_IRQ_StartEx(&SDCard_SPIM_SPI_UART_ISR);
 132:.\Generated_Source\PSoC4/SDCard_SPIM_SPI.c ****             if(0u == config->enableInterrupt)
 133:.\Generated_Source\PSoC4/SDCard_SPIM_SPI.c ****             {
 134:.\Generated_Source\PSoC4/SDCard_SPIM_SPI.c ****                 SDCard_SPIM_SCB_IRQ_Disable();
 135:.\Generated_Source\PSoC4/SDCard_SPIM_SPI.c ****             }
 136:.\Generated_Source\PSoC4/SDCard_SPIM_SPI.c **** 
 137:.\Generated_Source\PSoC4/SDCard_SPIM_SPI.c **** 
ARM GAS  C:\Users\srvs\AppData\Local\Temp\ccYq4Mps.s 			page 4


 138:.\Generated_Source\PSoC4/SDCard_SPIM_SPI.c ****             /* Clear RX buffer indexes */
 139:.\Generated_Source\PSoC4/SDCard_SPIM_SPI.c ****             SDCard_SPIM_rxBufferHead     = 0u;
 140:.\Generated_Source\PSoC4/SDCard_SPIM_SPI.c ****             SDCard_SPIM_rxBufferTail     = 0u;
 141:.\Generated_Source\PSoC4/SDCard_SPIM_SPI.c ****             SDCard_SPIM_rxBufferOverflow = 0u;
 142:.\Generated_Source\PSoC4/SDCard_SPIM_SPI.c **** 
 143:.\Generated_Source\PSoC4/SDCard_SPIM_SPI.c ****             /* Clrea TX buffer indexes */
 144:.\Generated_Source\PSoC4/SDCard_SPIM_SPI.c ****             SDCard_SPIM_txBufferHead = 0u;
 145:.\Generated_Source\PSoC4/SDCard_SPIM_SPI.c ****             SDCard_SPIM_txBufferTail = 0u;
 146:.\Generated_Source\PSoC4/SDCard_SPIM_SPI.c ****         }
 147:.\Generated_Source\PSoC4/SDCard_SPIM_SPI.c ****     }
 148:.\Generated_Source\PSoC4/SDCard_SPIM_SPI.c **** 
 149:.\Generated_Source\PSoC4/SDCard_SPIM_SPI.c **** #else
 150:.\Generated_Source\PSoC4/SDCard_SPIM_SPI.c **** 
 151:.\Generated_Source\PSoC4/SDCard_SPIM_SPI.c ****     /*******************************************************************************
 152:.\Generated_Source\PSoC4/SDCard_SPIM_SPI.c ****     * Function Name: SDCard_SPIM_SpiInit
 153:.\Generated_Source\PSoC4/SDCard_SPIM_SPI.c ****     ********************************************************************************
 154:.\Generated_Source\PSoC4/SDCard_SPIM_SPI.c ****     *
 155:.\Generated_Source\PSoC4/SDCard_SPIM_SPI.c ****     * Summary:
 156:.\Generated_Source\PSoC4/SDCard_SPIM_SPI.c ****     *  Configures the SCB for SPI operation.
 157:.\Generated_Source\PSoC4/SDCard_SPIM_SPI.c ****     *
 158:.\Generated_Source\PSoC4/SDCard_SPIM_SPI.c ****     * Parameters:
 159:.\Generated_Source\PSoC4/SDCard_SPIM_SPI.c ****     *  None
 160:.\Generated_Source\PSoC4/SDCard_SPIM_SPI.c ****     *
 161:.\Generated_Source\PSoC4/SDCard_SPIM_SPI.c ****     * Return:
 162:.\Generated_Source\PSoC4/SDCard_SPIM_SPI.c ****     *  None
 163:.\Generated_Source\PSoC4/SDCard_SPIM_SPI.c ****     *
 164:.\Generated_Source\PSoC4/SDCard_SPIM_SPI.c ****     *******************************************************************************/
 165:.\Generated_Source\PSoC4/SDCard_SPIM_SPI.c ****     void SDCard_SPIM_SpiInit(void)
 166:.\Generated_Source\PSoC4/SDCard_SPIM_SPI.c ****     {
  31              		.loc 1 166 0
  32              		.cfi_startproc
  33 0000 80B5     		push	{r7, lr}
  34              	.LCFI0:
  35              		.cfi_def_cfa_offset 8
  36              		.cfi_offset 7, -8
  37              		.cfi_offset 14, -4
  38 0002 00AF     		add	r7, sp, #0
  39              	.LCFI1:
  40              		.cfi_def_cfa_register 7
 167:.\Generated_Source\PSoC4/SDCard_SPIM_SPI.c ****         /* Configure SPI interface */
 168:.\Generated_Source\PSoC4/SDCard_SPIM_SPI.c ****         SDCard_SPIM_CTRL_REG     = SDCard_SPIM_SPI_DEFAULT_CTRL;
  41              		.loc 1 168 0
  42 0004 144B     		ldr	r3, .L3
  43 0006 154A     		ldr	r2, .L3+4
  44 0008 1A60     		str	r2, [r3]
 169:.\Generated_Source\PSoC4/SDCard_SPIM_SPI.c ****         SDCard_SPIM_SPI_CTRL_REG = SDCard_SPIM_SPI_DEFAULT_SPI_CTRL;
  45              		.loc 1 169 0
  46 000a 154B     		ldr	r3, .L3+8
  47 000c 154A     		ldr	r2, .L3+12
  48 000e 1A60     		str	r2, [r3]
 170:.\Generated_Source\PSoC4/SDCard_SPIM_SPI.c **** 
 171:.\Generated_Source\PSoC4/SDCard_SPIM_SPI.c ****         /* Configure TX and RX direction */
 172:.\Generated_Source\PSoC4/SDCard_SPIM_SPI.c ****         SDCard_SPIM_RX_CTRL_REG      = SDCard_SPIM_SPI_DEFAULT_RX_CTRL;
  49              		.loc 1 172 0
  50 0010 154B     		ldr	r3, .L3+16
  51 0012 164A     		ldr	r2, .L3+20
  52 0014 1A60     		str	r2, [r3]
ARM GAS  C:\Users\srvs\AppData\Local\Temp\ccYq4Mps.s 			page 5


 173:.\Generated_Source\PSoC4/SDCard_SPIM_SPI.c ****         SDCard_SPIM_RX_FIFO_CTRL_REG = SDCard_SPIM_SPI_DEFAULT_RX_FIFO_CTRL;
  53              		.loc 1 173 0
  54 0016 164B     		ldr	r3, .L3+24
  55 0018 0722     		mov	r2, #7
  56 001a 1A60     		str	r2, [r3]
 174:.\Generated_Source\PSoC4/SDCard_SPIM_SPI.c **** 
 175:.\Generated_Source\PSoC4/SDCard_SPIM_SPI.c ****         /* Configure TX and RX direction */
 176:.\Generated_Source\PSoC4/SDCard_SPIM_SPI.c ****         SDCard_SPIM_TX_CTRL_REG      = SDCard_SPIM_SPI_DEFAULT_TX_CTRL;
  57              		.loc 1 176 0
  58 001c 154B     		ldr	r3, .L3+28
  59 001e 134A     		ldr	r2, .L3+20
  60 0020 1A60     		str	r2, [r3]
 177:.\Generated_Source\PSoC4/SDCard_SPIM_SPI.c ****         SDCard_SPIM_TX_FIFO_CTRL_REG = SDCard_SPIM_SPI_DEFAULT_TX_FIFO_CTRL;
  61              		.loc 1 177 0
  62 0022 154B     		ldr	r3, .L3+32
  63 0024 0022     		mov	r2, #0
  64 0026 1A60     		str	r2, [r3]
 178:.\Generated_Source\PSoC4/SDCard_SPIM_SPI.c **** 
 179:.\Generated_Source\PSoC4/SDCard_SPIM_SPI.c ****         /* Configure interrupt sources */
 180:.\Generated_Source\PSoC4/SDCard_SPIM_SPI.c ****         SDCard_SPIM_INTR_I2C_EC_MASK_REG = SDCard_SPIM_SPI_DEFAULT_INTR_I2C_EC_MASK;
  65              		.loc 1 180 0
  66 0028 144B     		ldr	r3, .L3+36
  67 002a 0022     		mov	r2, #0
  68 002c 1A60     		str	r2, [r3]
 181:.\Generated_Source\PSoC4/SDCard_SPIM_SPI.c ****         SDCard_SPIM_INTR_SPI_EC_MASK_REG = SDCard_SPIM_SPI_DEFAULT_INTR_SPI_EC_MASK;
  69              		.loc 1 181 0
  70 002e 144B     		ldr	r3, .L3+40
  71 0030 0022     		mov	r2, #0
  72 0032 1A60     		str	r2, [r3]
 182:.\Generated_Source\PSoC4/SDCard_SPIM_SPI.c ****         SDCard_SPIM_INTR_SLAVE_MASK_REG  = SDCard_SPIM_SPI_DEFAULT_INTR_SLAVE_MASK;
  73              		.loc 1 182 0
  74 0034 134B     		ldr	r3, .L3+44
  75 0036 0022     		mov	r2, #0
  76 0038 1A60     		str	r2, [r3]
 183:.\Generated_Source\PSoC4/SDCard_SPIM_SPI.c ****         SDCard_SPIM_INTR_MASTER_MASK_REG = SDCard_SPIM_SPI_DEFAULT_INTR_MASTER_MASK;
  77              		.loc 1 183 0
  78 003a 134B     		ldr	r3, .L3+48
  79 003c 0022     		mov	r2, #0
  80 003e 1A60     		str	r2, [r3]
 184:.\Generated_Source\PSoC4/SDCard_SPIM_SPI.c ****         SDCard_SPIM_INTR_RX_MASK_REG     = SDCard_SPIM_SPI_DEFAULT_INTR_RX_MASK;
  81              		.loc 1 184 0
  82 0040 124B     		ldr	r3, .L3+52
  83 0042 0022     		mov	r2, #0
  84 0044 1A60     		str	r2, [r3]
 185:.\Generated_Source\PSoC4/SDCard_SPIM_SPI.c ****         SDCard_SPIM_INTR_TX_MASK_REG     = SDCard_SPIM_SPI_DEFAULT_INTR_TX_MASK;
  85              		.loc 1 185 0
  86 0046 124B     		ldr	r3, .L3+56
  87 0048 0022     		mov	r2, #0
  88 004a 1A60     		str	r2, [r3]
 186:.\Generated_Source\PSoC4/SDCard_SPIM_SPI.c **** 
 187:.\Generated_Source\PSoC4/SDCard_SPIM_SPI.c **** 
 188:.\Generated_Source\PSoC4/SDCard_SPIM_SPI.c ****         /* Configure interrupt source */
 189:.\Generated_Source\PSoC4/SDCard_SPIM_SPI.c ****         #if(SDCard_SPIM_SCB_IRQ_INTERNAL)
 190:.\Generated_Source\PSoC4/SDCard_SPIM_SPI.c ****             SDCard_SPIM_SCB_IRQ_StartEx(&SDCard_SPIM_SPI_UART_ISR);
  89              		.loc 1 190 0
  90 004c 114B     		ldr	r3, .L3+60
  91 004e 181C     		mov	r0, r3
ARM GAS  C:\Users\srvs\AppData\Local\Temp\ccYq4Mps.s 			page 6


  92 0050 FFF7FEFF 		bl	SDCard_SPIM_SCB_IRQ_StartEx
 191:.\Generated_Source\PSoC4/SDCard_SPIM_SPI.c **** 
 192:.\Generated_Source\PSoC4/SDCard_SPIM_SPI.c ****             #if(SDCard_SPIM_SPI_INTERRUPT_DISABLE)
 193:.\Generated_Source\PSoC4/SDCard_SPIM_SPI.c ****                 SDCard_SPIM_SCB_IRQ_Disable();
 194:.\Generated_Source\PSoC4/SDCard_SPIM_SPI.c ****             #endif /* (SDCard_SPIM_SPI_INTERRUPT_DISABLE) */
 195:.\Generated_Source\PSoC4/SDCard_SPIM_SPI.c ****         #endif /* (SDCard_SPIM_SCB_IRQ_INTERNAL) */
 196:.\Generated_Source\PSoC4/SDCard_SPIM_SPI.c **** 
 197:.\Generated_Source\PSoC4/SDCard_SPIM_SPI.c **** 
 198:.\Generated_Source\PSoC4/SDCard_SPIM_SPI.c ****         #if(SDCard_SPIM_INTERNAL_RX_SW_BUFFER_CONST)
 199:.\Generated_Source\PSoC4/SDCard_SPIM_SPI.c ****             SDCard_SPIM_rxBufferHead     = 0u;
 200:.\Generated_Source\PSoC4/SDCard_SPIM_SPI.c ****             SDCard_SPIM_rxBufferTail     = 0u;
 201:.\Generated_Source\PSoC4/SDCard_SPIM_SPI.c ****             SDCard_SPIM_rxBufferOverflow = 0u;
 202:.\Generated_Source\PSoC4/SDCard_SPIM_SPI.c ****         #endif /* (SDCard_SPIM_INTERNAL_RX_SW_BUFFER_CONST) */
 203:.\Generated_Source\PSoC4/SDCard_SPIM_SPI.c **** 
 204:.\Generated_Source\PSoC4/SDCard_SPIM_SPI.c ****         #if(SDCard_SPIM_INTERNAL_TX_SW_BUFFER_CONST)
 205:.\Generated_Source\PSoC4/SDCard_SPIM_SPI.c ****             SDCard_SPIM_txBufferHead = 0u;
 206:.\Generated_Source\PSoC4/SDCard_SPIM_SPI.c ****             SDCard_SPIM_txBufferTail = 0u;
 207:.\Generated_Source\PSoC4/SDCard_SPIM_SPI.c ****         #endif /* (SDCard_SPIM_INTERNAL_TX_SW_BUFFER_CONST) */
 208:.\Generated_Source\PSoC4/SDCard_SPIM_SPI.c ****     }
  93              		.loc 1 208 0
  94 0054 BD46     		mov	sp, r7
  95              		@ sp needed for prologue
  96 0056 80BD     		pop	{r7, pc}
  97              	.L4:
  98              		.align	2
  99              	.L3:
 100 0058 00000740 		.word	1074200576
 101 005c 05000001 		.word	16777221
 102 0060 20000740 		.word	1074200608
 103 0064 11000080 		.word	-2147483631
 104 0068 00030740 		.word	1074201344
 105 006c 07010080 		.word	-2147483385
 106 0070 04030740 		.word	1074201348
 107 0074 00020740 		.word	1074201088
 108 0078 04020740 		.word	1074201092
 109 007c 880E0740 		.word	1074204296
 110 0080 C80E0740 		.word	1074204360
 111 0084 480F0740 		.word	1074204488
 112 0088 080F0740 		.word	1074204424
 113 008c C80F0740 		.word	1074204616
 114 0090 880F0740 		.word	1074204552
 115 0094 00000000 		.word	SDCard_SPIM_SPI_UART_ISR
 116              		.cfi_endproc
 117              	.LFE0:
 118              		.size	SDCard_SPIM_SpiInit, .-SDCard_SPIM_SpiInit
 119              		.section	.text.SDCard_SPIM_SpiSetActiveSlaveSelect,"ax",%progbits
 120              		.align	2
 121              		.global	SDCard_SPIM_SpiSetActiveSlaveSelect
 122              		.code	16
 123              		.thumb_func
 124              		.type	SDCard_SPIM_SpiSetActiveSlaveSelect, %function
 125              	SDCard_SPIM_SpiSetActiveSlaveSelect:
 126              	.LFB1:
 209:.\Generated_Source\PSoC4/SDCard_SPIM_SPI.c **** 
 210:.\Generated_Source\PSoC4/SDCard_SPIM_SPI.c **** #endif /* (SDCard_SPIM_SCB_MODE_UNCONFIG_CONST_CFG) */
 211:.\Generated_Source\PSoC4/SDCard_SPIM_SPI.c **** 
 212:.\Generated_Source\PSoC4/SDCard_SPIM_SPI.c **** 
ARM GAS  C:\Users\srvs\AppData\Local\Temp\ccYq4Mps.s 			page 7


 213:.\Generated_Source\PSoC4/SDCard_SPIM_SPI.c **** /*******************************************************************************
 214:.\Generated_Source\PSoC4/SDCard_SPIM_SPI.c **** * Function Name: SDCard_SPIM_SetActiveSlaveSelect
 215:.\Generated_Source\PSoC4/SDCard_SPIM_SPI.c **** ********************************************************************************
 216:.\Generated_Source\PSoC4/SDCard_SPIM_SPI.c **** *
 217:.\Generated_Source\PSoC4/SDCard_SPIM_SPI.c **** * Summary:
 218:.\Generated_Source\PSoC4/SDCard_SPIM_SPI.c **** *  Selects one of the four SPI slave select signals.
 219:.\Generated_Source\PSoC4/SDCard_SPIM_SPI.c **** *  The component should be in one of the following states to change the active
 220:.\Generated_Source\PSoC4/SDCard_SPIM_SPI.c **** *  slave select signal source correctly:
 221:.\Generated_Source\PSoC4/SDCard_SPIM_SPI.c **** *   - the component is disabled
 222:.\Generated_Source\PSoC4/SDCard_SPIM_SPI.c **** *   - the component has completed all transactions (TX FIFO is empty and the
 223:.\Generated_Source\PSoC4/SDCard_SPIM_SPI.c **** *     SpiDone flag is set)
 224:.\Generated_Source\PSoC4/SDCard_SPIM_SPI.c **** *  This function does not check that these conditions are met.
 225:.\Generated_Source\PSoC4/SDCard_SPIM_SPI.c **** *  At initialization time the active slave select line is slave select 0.
 226:.\Generated_Source\PSoC4/SDCard_SPIM_SPI.c **** *
 227:.\Generated_Source\PSoC4/SDCard_SPIM_SPI.c **** * Parameters:
 228:.\Generated_Source\PSoC4/SDCard_SPIM_SPI.c **** *  activeSelect: The four lines available to utilize Slave Select function.
 229:.\Generated_Source\PSoC4/SDCard_SPIM_SPI.c **** *
 230:.\Generated_Source\PSoC4/SDCard_SPIM_SPI.c **** * Return:
 231:.\Generated_Source\PSoC4/SDCard_SPIM_SPI.c **** *  None
 232:.\Generated_Source\PSoC4/SDCard_SPIM_SPI.c **** *
 233:.\Generated_Source\PSoC4/SDCard_SPIM_SPI.c **** *******************************************************************************/
 234:.\Generated_Source\PSoC4/SDCard_SPIM_SPI.c **** void SDCard_SPIM_SpiSetActiveSlaveSelect(uint32 activeSelect)
 235:.\Generated_Source\PSoC4/SDCard_SPIM_SPI.c **** {
 127              		.loc 1 235 0
 128              		.cfi_startproc
 129 0000 80B5     		push	{r7, lr}
 130              	.LCFI2:
 131              		.cfi_def_cfa_offset 8
 132              		.cfi_offset 7, -8
 133              		.cfi_offset 14, -4
 134 0002 84B0     		sub	sp, sp, #16
 135              	.LCFI3:
 136              		.cfi_def_cfa_offset 24
 137 0004 00AF     		add	r7, sp, #0
 138              	.LCFI4:
 139              		.cfi_def_cfa_register 7
 140 0006 7860     		str	r0, [r7, #4]
 236:.\Generated_Source\PSoC4/SDCard_SPIM_SPI.c ****     uint32 spiCtrl;
 237:.\Generated_Source\PSoC4/SDCard_SPIM_SPI.c ****     
 238:.\Generated_Source\PSoC4/SDCard_SPIM_SPI.c ****     spiCtrl = SDCard_SPIM_SPI_CTRL_REG;
 141              		.loc 1 238 0
 142 0008 0A4B     		ldr	r3, .L7
 143 000a 1B68     		ldr	r3, [r3]
 144 000c FB60     		str	r3, [r7, #12]
 239:.\Generated_Source\PSoC4/SDCard_SPIM_SPI.c ****     
 240:.\Generated_Source\PSoC4/SDCard_SPIM_SPI.c ****     spiCtrl &= (uint32) ~SDCard_SPIM_SPI_CTRL_SLAVE_SELECT_MASK; /* Clear SS bits */
 145              		.loc 1 240 0
 146 000e FA68     		ldr	r2, [r7, #12]
 147 0010 094B     		ldr	r3, .L7+4
 148 0012 1340     		and	r3, r3, r2
 149 0014 FB60     		str	r3, [r7, #12]
 241:.\Generated_Source\PSoC4/SDCard_SPIM_SPI.c ****     spiCtrl |= (uint32)  SDCard_SPIM_GET_SPI_CTRL_SS(activeSelect);
 150              		.loc 1 241 0
 151 0016 7B68     		ldr	r3, [r7, #4]
 152 0018 9A06     		lsl	r2, r3, #26
 153 001a C023     		mov	r3, #192
 154 001c 1B05     		lsl	r3, r3, #20
ARM GAS  C:\Users\srvs\AppData\Local\Temp\ccYq4Mps.s 			page 8


 155 001e 1340     		and	r3, r3, r2
 156 0020 FA68     		ldr	r2, [r7, #12]
 157 0022 1343     		orr	r3, r3, r2
 158 0024 FB60     		str	r3, [r7, #12]
 242:.\Generated_Source\PSoC4/SDCard_SPIM_SPI.c ****     
 243:.\Generated_Source\PSoC4/SDCard_SPIM_SPI.c ****     SDCard_SPIM_SPI_CTRL_REG = spiCtrl;
 159              		.loc 1 243 0
 160 0026 034B     		ldr	r3, .L7
 161 0028 FA68     		ldr	r2, [r7, #12]
 162 002a 1A60     		str	r2, [r3]
 244:.\Generated_Source\PSoC4/SDCard_SPIM_SPI.c **** }
 163              		.loc 1 244 0
 164 002c BD46     		mov	sp, r7
 165 002e 04B0     		add	sp, sp, #16
 166              		@ sp needed for prologue
 167 0030 80BD     		pop	{r7, pc}
 168              	.L8:
 169 0032 C046     		.align	2
 170              	.L7:
 171 0034 20000740 		.word	1074200608
 172 0038 FFFFFFF3 		.word	-201326593
 173              		.cfi_endproc
 174              	.LFE1:
 175              		.size	SDCard_SPIM_SpiSetActiveSlaveSelect, .-SDCard_SPIM_SpiSetActiveSlaveSelect
 176              		.section	.text.SDCard_SPIM_SpiSaveConfig,"ax",%progbits
 177              		.align	2
 178              		.global	SDCard_SPIM_SpiSaveConfig
 179              		.code	16
 180              		.thumb_func
 181              		.type	SDCard_SPIM_SpiSaveConfig, %function
 182              	SDCard_SPIM_SpiSaveConfig:
 183              	.LFB2:
 245:.\Generated_Source\PSoC4/SDCard_SPIM_SPI.c **** 
 246:.\Generated_Source\PSoC4/SDCard_SPIM_SPI.c **** 
 247:.\Generated_Source\PSoC4/SDCard_SPIM_SPI.c **** /*******************************************************************************
 248:.\Generated_Source\PSoC4/SDCard_SPIM_SPI.c **** * Function Name: SDCard_SPIM_SpiSaveConfig
 249:.\Generated_Source\PSoC4/SDCard_SPIM_SPI.c **** ********************************************************************************
 250:.\Generated_Source\PSoC4/SDCard_SPIM_SPI.c **** *
 251:.\Generated_Source\PSoC4/SDCard_SPIM_SPI.c **** * Summary:
 252:.\Generated_Source\PSoC4/SDCard_SPIM_SPI.c **** *  Wakeup disabled: does nothing.
 253:.\Generated_Source\PSoC4/SDCard_SPIM_SPI.c **** *  Wakeup  enabled: clears SCB_backup.enableState to keep component enabled
 254:.\Generated_Source\PSoC4/SDCard_SPIM_SPI.c **** *  while DeepSleep. The SCB_INTR_SPI_EC_WAKE_UP enabled while initialization
 255:.\Generated_Source\PSoC4/SDCard_SPIM_SPI.c **** *  and tracks in active mode therefore it does not require to be cleared.
 256:.\Generated_Source\PSoC4/SDCard_SPIM_SPI.c **** *
 257:.\Generated_Source\PSoC4/SDCard_SPIM_SPI.c **** * Parameters:
 258:.\Generated_Source\PSoC4/SDCard_SPIM_SPI.c **** *  None
 259:.\Generated_Source\PSoC4/SDCard_SPIM_SPI.c **** *
 260:.\Generated_Source\PSoC4/SDCard_SPIM_SPI.c **** * Return:
 261:.\Generated_Source\PSoC4/SDCard_SPIM_SPI.c **** *  None
 262:.\Generated_Source\PSoC4/SDCard_SPIM_SPI.c **** *
 263:.\Generated_Source\PSoC4/SDCard_SPIM_SPI.c **** * Global variables:
 264:.\Generated_Source\PSoC4/SDCard_SPIM_SPI.c **** *  None
 265:.\Generated_Source\PSoC4/SDCard_SPIM_SPI.c **** *
 266:.\Generated_Source\PSoC4/SDCard_SPIM_SPI.c **** *******************************************************************************/
 267:.\Generated_Source\PSoC4/SDCard_SPIM_SPI.c **** void SDCard_SPIM_SpiSaveConfig(void)
 268:.\Generated_Source\PSoC4/SDCard_SPIM_SPI.c **** {
 184              		.loc 1 268 0
ARM GAS  C:\Users\srvs\AppData\Local\Temp\ccYq4Mps.s 			page 9


 185              		.cfi_startproc
 186 0000 80B5     		push	{r7, lr}
 187              	.LCFI5:
 188              		.cfi_def_cfa_offset 8
 189              		.cfi_offset 7, -8
 190              		.cfi_offset 14, -4
 191 0002 00AF     		add	r7, sp, #0
 192              	.LCFI6:
 193              		.cfi_def_cfa_register 7
 269:.\Generated_Source\PSoC4/SDCard_SPIM_SPI.c ****     #if(SDCard_SPIM_CHECK_SPI_WAKE_ENABLE)
 270:.\Generated_Source\PSoC4/SDCard_SPIM_SPI.c ****     {
 271:.\Generated_Source\PSoC4/SDCard_SPIM_SPI.c ****         SDCard_SPIM_backup.enableState = 0u; /* Keep SCB enabled */
 272:.\Generated_Source\PSoC4/SDCard_SPIM_SPI.c ****         
 273:.\Generated_Source\PSoC4/SDCard_SPIM_SPI.c ****         /* Clear wake-up before enable */
 274:.\Generated_Source\PSoC4/SDCard_SPIM_SPI.c ****         SDCard_SPIM_ClearSpiExtClkInterruptSource(SDCard_SPIM_INTR_SPI_EC_WAKE_UP);
 275:.\Generated_Source\PSoC4/SDCard_SPIM_SPI.c ****         
 276:.\Generated_Source\PSoC4/SDCard_SPIM_SPI.c ****         /* Enable interrupt to wakeup the device */
 277:.\Generated_Source\PSoC4/SDCard_SPIM_SPI.c ****         SDCard_SPIM_SetSpiExtClkInterruptMode(SDCard_SPIM_INTR_SPI_EC_WAKE_UP);
 278:.\Generated_Source\PSoC4/SDCard_SPIM_SPI.c ****     }
 279:.\Generated_Source\PSoC4/SDCard_SPIM_SPI.c ****     #endif
 280:.\Generated_Source\PSoC4/SDCard_SPIM_SPI.c **** }
 194              		.loc 1 280 0
 195 0004 BD46     		mov	sp, r7
 196              		@ sp needed for prologue
 197 0006 80BD     		pop	{r7, pc}
 198              		.cfi_endproc
 199              	.LFE2:
 200              		.size	SDCard_SPIM_SpiSaveConfig, .-SDCard_SPIM_SpiSaveConfig
 201              		.section	.text.SDCard_SPIM_SpiRestoreConfig,"ax",%progbits
 202              		.align	2
 203              		.global	SDCard_SPIM_SpiRestoreConfig
 204              		.code	16
 205              		.thumb_func
 206              		.type	SDCard_SPIM_SpiRestoreConfig, %function
 207              	SDCard_SPIM_SpiRestoreConfig:
 208              	.LFB3:
 281:.\Generated_Source\PSoC4/SDCard_SPIM_SPI.c **** 
 282:.\Generated_Source\PSoC4/SDCard_SPIM_SPI.c **** 
 283:.\Generated_Source\PSoC4/SDCard_SPIM_SPI.c **** /*******************************************************************************
 284:.\Generated_Source\PSoC4/SDCard_SPIM_SPI.c **** * Function Name: SDCard_SPIM_SpiRestoreConfig
 285:.\Generated_Source\PSoC4/SDCard_SPIM_SPI.c **** ********************************************************************************
 286:.\Generated_Source\PSoC4/SDCard_SPIM_SPI.c **** *
 287:.\Generated_Source\PSoC4/SDCard_SPIM_SPI.c **** * Summary:
 288:.\Generated_Source\PSoC4/SDCard_SPIM_SPI.c **** *  Does nothing.
 289:.\Generated_Source\PSoC4/SDCard_SPIM_SPI.c **** *
 290:.\Generated_Source\PSoC4/SDCard_SPIM_SPI.c **** * Parameters:
 291:.\Generated_Source\PSoC4/SDCard_SPIM_SPI.c **** *  None
 292:.\Generated_Source\PSoC4/SDCard_SPIM_SPI.c **** *
 293:.\Generated_Source\PSoC4/SDCard_SPIM_SPI.c **** * Return:
 294:.\Generated_Source\PSoC4/SDCard_SPIM_SPI.c **** *  None
 295:.\Generated_Source\PSoC4/SDCard_SPIM_SPI.c **** *
 296:.\Generated_Source\PSoC4/SDCard_SPIM_SPI.c **** * Global variables:
 297:.\Generated_Source\PSoC4/SDCard_SPIM_SPI.c **** *  None
 298:.\Generated_Source\PSoC4/SDCard_SPIM_SPI.c **** *
 299:.\Generated_Source\PSoC4/SDCard_SPIM_SPI.c **** *******************************************************************************/
 300:.\Generated_Source\PSoC4/SDCard_SPIM_SPI.c **** void SDCard_SPIM_SpiRestoreConfig(void)
 301:.\Generated_Source\PSoC4/SDCard_SPIM_SPI.c **** {
ARM GAS  C:\Users\srvs\AppData\Local\Temp\ccYq4Mps.s 			page 10


 209              		.loc 1 301 0
 210              		.cfi_startproc
 211 0000 80B5     		push	{r7, lr}
 212              	.LCFI7:
 213              		.cfi_def_cfa_offset 8
 214              		.cfi_offset 7, -8
 215              		.cfi_offset 14, -4
 216 0002 00AF     		add	r7, sp, #0
 217              	.LCFI8:
 218              		.cfi_def_cfa_register 7
 302:.\Generated_Source\PSoC4/SDCard_SPIM_SPI.c ****     #if(SDCard_SPIM_CHECK_SPI_WAKE_ENABLE)
 303:.\Generated_Source\PSoC4/SDCard_SPIM_SPI.c ****     {
 304:.\Generated_Source\PSoC4/SDCard_SPIM_SPI.c ****         /* Disable interrupt to wakeup the device */
 305:.\Generated_Source\PSoC4/SDCard_SPIM_SPI.c ****         SDCard_SPIM_SetSpiExtClkInterruptMode(SDCard_SPIM_NO_INTR_SOURCES);
 306:.\Generated_Source\PSoC4/SDCard_SPIM_SPI.c ****     }
 307:.\Generated_Source\PSoC4/SDCard_SPIM_SPI.c ****     #endif
 308:.\Generated_Source\PSoC4/SDCard_SPIM_SPI.c **** }
 219              		.loc 1 308 0
 220 0004 BD46     		mov	sp, r7
 221              		@ sp needed for prologue
 222 0006 80BD     		pop	{r7, pc}
 223              		.cfi_endproc
 224              	.LFE3:
 225              		.size	SDCard_SPIM_SpiRestoreConfig, .-SDCard_SPIM_SpiRestoreConfig
 226              		.text
 227              	.Letext0: